(dp0
S'catalyze_ApopC3pro_to_Apop_C3A_kc'
p1
cnumpy.core.multiarray
scalar
p2
(cnumpy
dtype
p3
(S'f8'
p4
I0
I1
tp5
Rp6
(I3
S'<'
p7
NNNI-1
I-1
I0
tp8
bS'\xbc6~9\x03\x86z>'
p9
tp10
Rp11
sS'bind_C3A_C6pro_to_C3AC6pro_kf'
p12
g2
(g6
S'\xe2\xd3\xc5l\xb8xn?'
p13
tp14
Rp15
sS'pore_transport_complex_BakA_4_SmacM_kr'
p16
g2
(g6
S'5\xf7`\xb9yq\xcd='
p17
tp18
Rp19
sS'equilibrate_BaxC_to_BaxM_kr'
p20
g2
(g6
S";'\xd0L\xf0\xb9\xf3@"
p21
tp22
Rp23
sS'bind_C3A_C6pro_to_C3AC6pro_kr'
p24
g2
(g6
S'\x93\r\xd3\x8fX\xfd\xc0?'
p25
tp26
Rp27
sS'catalyze_C8AC3pro_to_C8A_C3A_kc'
p28
g2
(g6
S'\xa4\xf0G\x18\t\xa7i@'
p29
tp30
Rp31
sS'pore_transport_complex_BakA_4_SmacM_kf'
p32
g2
(g6
S'\x97"q\xc0\xe6\xadY>'
p33
tp34
Rp35
sS'bind_BaxA_Bcl2_kr'
p36
g2
(g6
S'\x95\xcb\xccW\xab0E@'
p37
tp38
Rp39
sS'bind_C3A_PARPU_to_C3APARPU_kf'
p40
g2
(g6
S'\xab2H\xc3\xe5\xa7X?'
p41
tp42
Rp43
sS'bind_BidM_BclxLM_kr'
p44
g2
(g6
S'\x03\x80\xe3\x18\x81~\xf9@'
p45
tp46
Rp47
sS'bind_BidM_BakM_to_BidMBakM_kr'
p48
g2
(g6
S'\x92\x14\xb2\xe6Da\xa8='
p49
tp50
Rp51
sS'pore_transport_complex_BaxA_4_CytoCM_kr'
p52
g2
(g6
S'\x7f\xf2\xfe\xec\x03w\x87?'
p53
tp54
Rp55
sS'bind_BAR_C8A_kf'
p56
g2
(g6
S'y\x9bu|\x9a\t\x1c?'
p57
tp58
Rp59
sS'pore_transport_dissociate_BakA_4_SmacC_kc'
p60
g2
(g6
S'a\x82#H* x@'
p61
tp62
Rp63
sS'bind_BaxA_Bcl2_kf'
p64
g2
(g6
S'\xbc<\xd7\x99\xba1\x89>'
p65
tp66
Rp67
sS'bind_BidM_BclxLM_kf'
p68
g2
(g6
S'\xab\xd3\xb0\x1fu\xfd\x19='
p69
tp70
Rp71
sS'assemble_pore_sequential_Bax_2_kf'
p72
g2
(g6
S"\xbc\xfb\xbf<'\x15\xe0>"
p73
tp74
Rp75
sS'pore_transport_complex_BaxA_4_CytoCM_kf'
p76
g2
(g6
S'\xcd\xdb\x14k\xe5\x8baB'
p77
tp78
Rp79
sS'bind_BAR_C8A_kr'
p80
g2
(g6
S'\xbbS\xda\xef\xed\xe6\xe6>'
p81
tp82
Rp83
sS'bind_C3A_PARPU_to_C3APARPU_kr'
p84
g2
(g6
S'\xf5#:mua\xb9?'
p85
tp86
Rp87
sS'bind_Apop_XIAP_kr'
p88
g2
(g6
S'D\x88,\xb4\xb9GF?'
p89
tp90
Rp91
sS'catalyze_BakABakM_to_BakA_BakA_kc'
p92
g2
(g6
S'/\xca\xe8\xde\x1bNh@'
p93
tp94
Rp95
sS'bind_BakA_BakM_to_BakABakM_kf'
p96
g2
(g6
S'\xf7u\x13\xd0\xa6Y,>'
p97
tp98
Rp99
sS'convert_LR_to_DISC_kc'
p100
g2
(g6
S'\xb1\x9d\xfe+$a\xde='
p101
tp102
Rp103
sS'bind_Apop_XIAP_kf'
p104
g2
(g6
S'+\x06\xf0\xb4\xd3h%>'
p105
tp106
Rp107
sS'equilibrate_BclxLC_to_BclxLM_kf'
p108
g2
(g6
S'\x98\x84\xd5Yi5T>'
p109
tp110
Rp111
sS'pore_transport_dissociate_BaxA_4_SmacC_kc'
p112
g2
(g6
S'r\xdb\x1d\x0f\xc0\xa6\x84@'
p113
tp114
Rp115
sS'catalyze_C6AC8pro_to_C6A_C8A_kc'
p116
g2
(g6
S'\x03\x7f\xee\xc5\xc7\xb2\xd3>'
p117
tp118
Rp119
sS'bind_BakA_BakM_to_BakABakM_kr'
p120
g2
(g6
S'\xe4#\xe8-T\xafx@'
p121
tp122
Rp123
sS'bind_C8A_BidU_to_C8ABidU_kf'
p124
g2
(g6
S'C\x9c\xc1\x7f\x9b\x83\x98>'
p125
tp126
Rp127
sS'bind_BakA_Mcl1_kf'
p128
g2
(g6
S'\x8d\xbf\xbf\x98v{d?'
p129
tp130
Rp131
sS'assemble_pore_sequential_Bax_4_kf'
p132
g2
(g6
S'\x06D\xdf+ s\x1cA'
p133
tp134
Rp135
sS'bind_BakA_Mcl1_kr'
p136
g2
(g6
S'\xa3\x18\x83\xed\x9aeb@'
p137
tp138
Rp139
sS'assemble_pore_sequential_Bax_4_kr'
p140
g2
(g6
S'}er&\x1cn"@'
p141
tp142
Rp143
sS'bind_C8A_BidU_to_C8ABidU_kr'
p144
g2
(g6
S'\xb0\xa1\x89\x94\xe2\xed\xb6?'
p145
tp146
Rp147
sS'bind_XIAP_C3A_to_XIAPC3A_kr'
p148
g2
(g6
S'# \xb1\x80\xef\xcaH='
p149
tp150
Rp151
sS'bind_CytoCA_ApafI_to_CytoCAApafI_kr'
p152
g2
(g6
S'\xbc\xad\x85\x88\xf0_PA'
p153
tp154
Rp155
sS'bind_BidM_BaxM_to_BidMBaxM_kr'
p156
g2
(g6
S"\xf8\x03\xb8y'(\xf0>"
p157
tp158
Rp159
sS'bind_CytoCA_ApafI_to_CytoCAApafI_kf'
p160
g2
(g6
S'\xee]\xc9\xfb8m??'
p161
tp162
Rp163
sS'bind_XIAP_C3A_to_XIAPC3A_kf'
p164
g2
(g6
S'J\xa8Y@\xa10\x14?'
p165
tp166
Rp167
sS'catalyze_DISCC8pro_to_DISC_C8A_kc'
p168
g2
(g6
S'\x06R0Y\x141\xa8@'
p169
tp170
Rp171
sS'pore_transport_dissociate_BaxA_4_CytoCC_kc'
p172
g2
(g6
S'U\x1a\xc8\xcb\xd3\xdf\xc5A'
p173
tp174
Rp175
sS'bind_BidM_BaxM_to_BidMBaxM_kf'
p176
g2
(g6
S'=<.\x1c\x18\t\x0f@'
p177
tp178
Rp179
sS'assemble_pore_sequential_Bak_2_kr'
p180
g2
(g6
S'2\xa9\x8a\x070\xd9\xa9?'
p181
tp182
Rp183
sS'assemble_pore_sequential_Bak_3_kr'
p184
g2
(g6
S'\xd6\xf3\x1eT\x8c$\x1d?'
p185
tp186
Rp187
sS'bind_DISC_flip_kr'
p188
g2
(g6
S'b\x00\xeb\xba\xbe}7?'
p189
tp190
Rp191
sS'catalyze_C3AC6pro_to_C3A_C6A_kc'
p192
g2
(g6
S'X\x82\x86CA\xa6_?'
p193
tp194
Rp195
sS'bind_DISC_flip_kf'
p196
g2
(g6
S'*3\x7f\x99\x80-\xd1>'
p197
tp198
Rp199
sS'assemble_pore_sequential_Bak_3_kf'
p200
g2
(g6
S'@\xca\x1e(t\xc2\xe5='
p201
tp202
Rp203
sS'bind_NoxaM_Mcl1M_kf'
p204
g2
(g6
S'D\xec\xce\xeb(\xc7*>'
p205
tp206
Rp207
sS'bind_NoxaM_Mcl1M_kr'
p208
g2
(g6
S'\xe1;t\xf4\x12WH?'
p209
tp210
Rp211
sS'catalyze_XIAPC3A_to_XIAP_C3ub_kc'
p212
g2
(g6
S'?\xa5_\x1e\x9e\r\xa4@'
p213
tp214
Rp215
sS'catalyze_C3APARPU_to_C3A_PARPC_kc'
p216
g2
(g6
S'\xb0\xc7\xecM\xc4\x1ez@'
p217
tp218
Rp219
sS'bind_Apop_C3pro_to_ApopC3pro_kf'
p220
g2
(g6
S'\x8c\xdc\x013U\xb0\xa5>'
p221
tp222
Rp223
sS'catalyze_CytoCAApafI_to_CytoCA_ApafA_kc'
p224
g2
(g6
S'\x9b\xf2\xf3\xa5\xcen\xd5>'
p225
tp226
Rp227
sS'bind_BaxA_BaxM_to_BaxABaxM_kr'
p228
g2
(g6
S'<"K\x19\xdab\xc3>'
p229
tp230
Rp231
sS'bind_Apop_C3pro_to_ApopC3pro_kr'
p232
g2
(g6
S'\x93\x1cj\xdd\x8b7O?'
p233
tp234
Rp235
sS'bind_BadM_BclxLM_kf'
p236
g2
(g6
S'u\xa6+\xbc1\x8f,>'
p237
tp238
Rp239
sS'assemble_pore_sequential_Bak_2_kf'
p240
g2
(g6
S'"\xdbt\xd4vKc>'
p241
tp242
Rp243
sS'assemble_pore_sequential_Bak_4_kf'
p244
g2
(g6
S'D\xe4\x94\x86\x07YA?'
p245
tp246
Rp247
sS'assemble_pore_sequential_Bax_2_kr'
p248
g2
(g6
S'\xa2\x19\r\xc0!\xbc\xae?'
p249
tp250
Rp251
sS'catalyze_C8ABidU_to_C8A_BidT_kc'
p252
g2
(g6
S'O=\xb1\xa0X\x14\xc0?'
p253
tp254
Rp255
sS'bind_BadM_BclxLM_kr'
p256
g2
(g6
S'o\xdbR\x99`\x0e\xc1<'
p257
tp258
Rp259
sS'assemble_pore_sequential_Bak_4_kr'
p260
g2
(g6
S'\xf9\xc5\xc6\x19\x9c\xabS?'
p261
tp262
Rp263
sS'bind_SmacA_XIAP_kf'
p264
g2
(g6
S'\xbf\xad\xc9)\xb8\xce`?'
p265
tp266
Rp267
sS'bind_BidM_Bcl2_kr'
p268
g2
(g6
S'\x91\xd0\xded0\r\x1f?'
p269
tp270
Rp271
sS'pore_transport_complex_BaxA_4_SmacM_kr'
p272
g2
(g6
S'\xba\xeb\xe0<\xddZ\x05@'
p273
tp274
Rp275
sS'convert_ApafA_C9_to_Apop_kf'
p276
g2
(g6
S'"N\xe2\xc1\xfbfl?'
p277
tp278
Rp279
sS'bind_BaxA_BclxLM_kr'
p280
g2
(g6
S'Xg%;\xeb3b='
p281
tp282
Rp283
sS'bind_BadM_Bcl2_kf'
p284
g2
(g6
S'\xf9\xfb+\xb9Bw\xea?'
p285
tp286
Rp287
sS'bind_SmacA_XIAP_kr'
p288
g2
(g6
S'\xc9\x10\x8cR\xbd\xbd\n@'
p289
tp290
Rp291
sS'bind_BidM_Bcl2_kf'
p292
g2
(g6
S'&16gk\x069?'
p293
tp294
Rp295
sS'bind_BaxA_BclxLM_kf'
p296
g2
(g6
S'\x9e!Y[\xa6Z\xfa='
p297
tp298
Rp299
sS'bind_BadM_Bcl2_kr'
p300
g2
(g6
S'\r/f\x1d\x01\xf7\x8c?'
p301
tp302
Rp303
sS'pore_transport_complex_BaxA_4_SmacM_kf'
p304
g2
(g6
S'\xf5~b\x95\xdc\x81~@'
p305
tp306
Rp307
sS'convert_ApafA_C9_to_Apop_kr'
p308
g2
(g6
S'\xe8\xcf\x01\n\xbe\xe9#?'
p309
tp310
Rp311
sS'bind_L_R_to_LR_kr'
p312
g2
(g6
S'\xd8\xcd\xaf\x13\x00\xa3\x84>'
p313
tp314
Rp315
sS'catalyze_BidMBaxM_to_BidM_BaxA_kc'
p316
g2
(g6
S'\x08\x90\r\xc5\xa7\\n@'
p317
tp318
Rp319
sS'equilibrate_CytoCC_to_CytoCA_kr'
p320
g2
(g6
S'\xc7\xc3\xc8\xd4O<~?'
p321
tp322
Rp323
sS'bind_BaxA_BaxM_to_BaxABaxM_kf'
p324
g2
(g6
S'\x80\x81\xadIl\x88\xfe='
p325
tp326
Rp327
sS'bind_L_R_to_LR_kf'
p328
g2
(g6
S'Y\x00\xb2#\xd8\x1c\xc4?'
p329
tp330
Rp331
sS'catalyze_BidMBakM_to_BidM_BakA_kc'
p332
g2
(g6
S'\xb8v\xc9\x84\ti\xc1?'
p333
tp334
Rp335
sS'bind_BidM_BakM_to_BidMBakM_kf'
p336
g2
(g6
S'\xb4\x05\xf7\x92\xee6\xb8;'
p337
tp338
Rp339
sS'pore_transport_dissociate_BakA_4_CytoCC_kc'
p340
g2
(g6
S'\xb4\xed"\x9bB\x8eYA'
p341
tp342
Rp343
sS'equilibrate_CytoCC_to_CytoCA_kf'
p344
g2
(g6
S'(3\x06\x9dr\xf6\xbe>'
p345
tp346
Rp347
sS'equilibrate_SmacC_to_SmacA_kf'
p348
g2
(g6
S'\xe1|[\xe6\x17\xd6\x8d@'
p349
tp350
Rp351
sS'equilibrate_SmacC_to_SmacA_kr'
p352
g2
(g6
S'\xf2i\x0f\xed\x9f\xe8\r@'
p353
tp354
Rp355
sS'bind_BidM_Mcl1M_kr'
p356
g2
(g6
S'\x05\x9fx\x17\xf6\x86\xb6?'
p357
tp358
Rp359
sS'bind_C6A_C8pro_to_C6AC8pro_kf'
p360
g2
(g6
S'\x0b\x11y\xe3\xcd\x82\x87='
p361
tp362
Rp363
sS'equilibrate_BclxLC_to_BclxLM_kr'
p364
g2
(g6
S'\x89\xdac\x88\xaa\xb1\xbf?'
p365
tp366
Rp367
sS'bind_BidM_Mcl1M_kf'
p368
g2
(g6
S' q\xd0*\xe0\x83\xe5>'
p369
tp370
Rp371
sS'bind_C6A_C8pro_to_C6AC8pro_kr'
p372
g2
(g6
S'\x1b\xd6\x95\xb5+\x8aW>'
p373
tp374
Rp375
sS'bind_BakA_BclxLM_kf'
p376
g2
(g6
S'\x93\xb1\x1bJ\x90\x8e\x00@'
p377
tp378
Rp379
sS'equilibrate_BidT_to_BidM_kr'
p380
g2
(g6
S'\x16wT\xf2\xc2@ @'
p381
tp382
Rp383
sS'pore_transport_complex_BakA_4_CytoCM_kf'
p384
g2
(g6
S'\x9d\xa4/\x19\xd2{\x1e@'
p385
tp386
Rp387
sS'bind_C8A_C3pro_to_C8AC3pro_kf'
p388
g2
(g6
S'U\xc2\xe9I\xfc@e>'
p389
tp390
Rp391
sS'equilibrate_BidT_to_BidM_kf'
p392
g2
(g6
S'!\x1e\x8c\xc6\x060\xa4@'
p393
tp394
Rp395
sS'equilibrate_BaxC_to_BaxM_kf'
p396
g2
(g6
S'\x9f\xcc\xf1\x1bS\x9a2?'
p397
tp398
Rp399
sS'bind_BakA_BclxLM_kr'
p400
g2
(g6
S'$\xc3p\xbe\xf5\xefq@'
p401
tp402
Rp403
sS'bind_C8A_C3pro_to_C8AC3pro_kr'
p404
g2
(g6
S'4\xf0\x08C\xb8\x87\x83='
p405
tp406
Rp407
sS'pore_transport_complex_BakA_4_CytoCM_kr'
p408
g2
(g6
S'/>\x12\xdda\x05+>'
p409
tp410
Rp411
sS'catalyze_BaxABaxM_to_BaxA_BaxA_kc'
p412
g2
(g6
S'\xaa\x00\x1b=\xa3Y\xe2?'
p413
tp414
Rp415
sS'bind_DISC_C8pro_to_DISCC8pro_kf'
p416
g2
(g6
S'\xe6 \xca\xeeyhgA'
p417
tp418
Rp419
sS'assemble_pore_sequential_Bax_3_kr'
p420
g2
(g6
S'\x8f\xa5\x1e,H\xa4\xd6>'
p421
tp422
Rp423
sS'bind_DISC_C8pro_to_DISCC8pro_kr'
p424
g2
(g6
S'S\x88\xaa;\xb0b\xe5>'
p425
tp426
Rp427
sS'assemble_pore_sequential_Bax_3_kf'
p428
g2
(g6
S'\x07\xa0\x8f\xdb\xe4\x03\xf0>'
p429
tp430
Rp431
s.