(dp0
S'catalyze_ApopC3pro_to_Apop_C3A_kc'
p1
cnumpy.core.multiarray
scalar
p2
(cnumpy
dtype
p3
(S'f8'
p4
I0
I1
tp5
Rp6
(I3
S'<'
p7
NNNI-1
I-1
I0
tp8
bS'\x82\xb6{)\xac\xa0k>'
p9
tp10
Rp11
sS'bind_C3A_C6pro_to_C3AC6pro_kf'
p12
g2
(g6
S'T\x84F%{\x99W?'
p13
tp14
Rp15
sS'pore_transport_complex_BakA_4_SmacM_kr'
p16
g2
(g6
S'\xceR\x8a\x9bx\xbd\xd1='
p17
tp18
Rp19
sS'equilibrate_BaxC_to_BaxM_kr'
p20
g2
(g6
S'\xa5\x13\x05\xac\xe0|\x00A'
p21
tp22
Rp23
sS'bind_C3A_C6pro_to_C3AC6pro_kr'
p24
g2
(g6
S'L\x049\xb1\xde\xa7\xd8?'
p25
tp26
Rp27
sS'catalyze_C8AC3pro_to_C8A_C3A_kc'
p28
g2
(g6
S'!E\xc8\xd2\xeeXI@'
p29
tp30
Rp31
sS'pore_transport_complex_BakA_4_SmacM_kf'
p32
g2
(g6
S'p=?2R3D>'
p33
tp34
Rp35
sS'bind_BaxA_Bcl2_kr'
p36
g2
(g6
S',\xad6\x82\xc4\x8b\x82@'
p37
tp38
Rp39
sS'bind_C3A_PARPU_to_C3APARPU_kf'
p40
g2
(g6
S'\xf2\xdc\xfc\xb5\xd6\xad\x86?'
p41
tp42
Rp43
sS'bind_BidM_BclxLM_kr'
p44
g2
(g6
S'\x86\x1f\xc2Uk\x86aA'
p45
tp46
Rp47
sS'bind_BidM_BakM_to_BidMBakM_kr'
p48
g2
(g6
S'\x9f\x99\x86\xb9\xf3\xe2\x84='
p49
tp50
Rp51
sS'pore_transport_complex_BaxA_4_CytoCM_kr'
p52
g2
(g6
S'x\x88"\x93iH\xb2?'
p53
tp54
Rp55
sS'bind_BAR_C8A_kf'
p56
g2
(g6
S'*\xbc\xe6vG\xa3\xe1>'
p57
tp58
Rp59
sS'pore_transport_dissociate_BakA_4_SmacC_kc'
p60
g2
(g6
S'\xcb\xaf\xe6\x06\xf9g{@'
p61
tp62
Rp63
sS'bind_BaxA_Bcl2_kf'
p64
g2
(g6
S'\x0e\xc4\xb5s\xad\xb9\xa4>'
p65
tp66
Rp67
sS'bind_BidM_BclxLM_kf'
p68
g2
(g6
S'\xc8\xdc\xe5\xd5\xd5\xd7+='
p69
tp70
Rp71
sS'assemble_pore_sequential_Bax_2_kf'
p72
g2
(g6
S'\xb6\x84@\xcf\xe7R\xc3>'
p73
tp74
Rp75
sS'pore_transport_complex_BaxA_4_CytoCM_kf'
p76
g2
(g6
S'\xcb\x9d\xe4h\x8e\x9eIB'
p77
tp78
Rp79
sS'bind_BAR_C8A_kr'
p80
g2
(g6
S'\xf3\xdc\x93\xc4\x9fA\xed>'
p81
tp82
Rp83
sS'bind_C3A_PARPU_to_C3APARPU_kr'
p84
g2
(g6
S'M8\xb6z\xa9S\xe9?'
p85
tp86
Rp87
sS'bind_Apop_XIAP_kr'
p88
g2
(g6
S'\xc4FVg\xe5\xb5\x0f?'
p89
tp90
Rp91
sS'catalyze_BakABakM_to_BakA_BakA_kc'
p92
g2
(g6
S'\x11Q\xf9\xce\xc1-\x92@'
p93
tp94
Rp95
sS'bind_BakA_BakM_to_BakABakM_kf'
p96
g2
(g6
S'\r\x02\xf0\xc0\\bN>'
p97
tp98
Rp99
sS'convert_LR_to_DISC_kc'
p100
g2
(g6
S'[\x0bS\xba\xec]\xfa='
p101
tp102
Rp103
sS'bind_Apop_XIAP_kf'
p104
g2
(g6
S'\xf3~\t#\xa8J(>'
p105
tp106
Rp107
sS'equilibrate_BclxLC_to_BclxLM_kf'
p108
g2
(g6
S'\x11\xd6\xa4DE\xedG>'
p109
tp110
Rp111
sS'pore_transport_dissociate_BaxA_4_SmacC_kc'
p112
g2
(g6
S'\xde.O\x82$\xc5\x9a@'
p113
tp114
Rp115
sS'catalyze_C6AC8pro_to_C6A_C8A_kc'
p116
g2
(g6
S'\xf2SZm\xa4\xf2\xaf>'
p117
tp118
Rp119
sS'bind_BakA_BakM_to_BakABakM_kr'
p120
g2
(g6
S'~\xdd\xa9\xc3\x86k\xb8@'
p121
tp122
Rp123
sS'bind_C8A_BidU_to_C8ABidU_kf'
p124
g2
(g6
S'\xc8\xc3\x98\xbd\x87\x8b\x8d>'
p125
tp126
Rp127
sS'bind_BakA_Mcl1_kf'
p128
g2
(g6
S'9\xf2\xcd\xf3.\xa4\xa4?'
p129
tp130
Rp131
sS'assemble_pore_sequential_Bax_4_kf'
p132
g2
(g6
S'!\xd1%\xeb\x85\x9c?A'
p133
tp134
Rp135
sS'bind_BakA_Mcl1_kr'
p136
g2
(g6
S'6R\xf0\t\xb9\xdc\x9c@'
p137
tp138
Rp139
sS'assemble_pore_sequential_Bax_4_kr'
p140
g2
(g6
S'\x99\xfb!\\.nK@'
p141
tp142
Rp143
sS'bind_C8A_BidU_to_C8ABidU_kr'
p144
g2
(g6
S'*LX\xf9\xa8\xa9\xea?'
p145
tp146
Rp147
sS'bind_XIAP_C3A_to_XIAPC3A_kr'
p148
g2
(g6
S'\x9f\x05\xe9\xa0S\xdd3='
p149
tp150
Rp151
sS'bind_CytoCA_ApafI_to_CytoCAApafI_kr'
p152
g2
(g6
S'\x8d\x13\r\xbaN\xc6HA'
p153
tp154
Rp155
sS'bind_BidM_BaxM_to_BidMBaxM_kr'
p156
g2
(g6
S'i\xf7\x1aK\xf7\xf3\xf3>'
p157
tp158
Rp159
sS'bind_CytoCA_ApafI_to_CytoCAApafI_kf'
p160
g2
(g6
S'f\x93W\xe2WD<?'
p161
tp162
Rp163
sS'bind_XIAP_C3A_to_XIAPC3A_kf'
p164
g2
(g6
S'\xb0^\xcd\xe6d\x05i?'
p165
tp166
Rp167
sS'catalyze_DISCC8pro_to_DISC_C8A_kc'
p168
g2
(g6
S'\x0e\xfcCAA5\x96@'
p169
tp170
Rp171
sS'pore_transport_dissociate_BaxA_4_CytoCC_kc'
p172
g2
(g6
S'\xa1\xc7(I?2\x91A'
p173
tp174
Rp175
sS'bind_BidM_BaxM_to_BidMBaxM_kf'
p176
g2
(g6
S'\xf5eq\xd4\xcf\xf14@'
p177
tp178
Rp179
sS'assemble_pore_sequential_Bak_2_kr'
p180
g2
(g6
S'\xec\xc6\x9b\x9c\xff\xca\xcb?'
p181
tp182
Rp183
sS'assemble_pore_sequential_Bak_3_kr'
p184
g2
(g6
S'\x06\xb6\xea\x96i3)?'
p185
tp186
Rp187
sS'bind_DISC_flip_kr'
p188
g2
(g6
S'6\x02!\xf5\x8b\x010?'
p189
tp190
Rp191
sS'catalyze_C3AC6pro_to_C3A_C6A_kc'
p192
g2
(g6
S'~\x14\xf8_\xcc\x154?'
p193
tp194
Rp195
sS'bind_DISC_flip_kf'
p196
g2
(g6
S"m\xbf\x02\xa2'+!?"
p197
tp198
Rp199
sS'assemble_pore_sequential_Bak_3_kf'
p200
g2
(g6
S'\x95\x16kO\xf0h\xc0='
p201
tp202
Rp203
sS'bind_NoxaM_Mcl1M_kf'
p204
g2
(g6
S'L.\x1awV\x8e\x1d>'
p205
tp206
Rp207
sS'bind_NoxaM_Mcl1M_kr'
p208
g2
(g6
S'\x08\xe8\xe4P\x14\xd8k?'
p209
tp210
Rp211
sS'catalyze_XIAPC3A_to_XIAP_C3ub_kc'
p212
g2
(g6
S'V\xfd3\xceZ\x0fx@'
p213
tp214
Rp215
sS'catalyze_C3APARPU_to_C3A_PARPC_kc'
p216
g2
(g6
S'\\\xb8Y\r\r\xc3\xa7@'
p217
tp218
Rp219
sS'bind_Apop_C3pro_to_ApopC3pro_kf'
p220
g2
(g6
S'\xcaV\x97\x83d^\xd5>'
p221
tp222
Rp223
sS'catalyze_CytoCAApafI_to_CytoCA_ApafA_kc'
p224
g2
(g6
S"c\x05'5\xb5y\x01?"
p225
tp226
Rp227
sS'bind_BaxA_BaxM_to_BaxABaxM_kr'
p228
g2
(g6
S'\x10\xcaj\x03y\xf1\xab>'
p229
tp230
Rp231
sS'bind_Apop_C3pro_to_ApopC3pro_kr'
p232
g2
(g6
S'\x88/;\xe6&\xd5!?'
p233
tp234
Rp235
sS'bind_BadM_BclxLM_kf'
p236
g2
(g6
S'\\2\xb2_\x8d\x153>'
p237
tp238
Rp239
sS'assemble_pore_sequential_Bak_2_kf'
p240
g2
(g6
S'\x11\xd2^\x0bY\xd5\x80>'
p241
tp242
Rp243
sS'assemble_pore_sequential_Bak_4_kf'
p244
g2
(g6
S'\x14\xce\xd6\xa3-U6?'
p245
tp246
Rp247
sS'assemble_pore_sequential_Bax_2_kr'
p248
g2
(g6
S'P\xde\xbd\xad\xc5\xbe\x97?'
p249
tp250
Rp251
sS'catalyze_C8ABidU_to_C8A_BidT_kc'
p252
g2
(g6
S'\xe0\xbf\xa0\xcdU2\xe0?'
p253
tp254
Rp255
sS'bind_BadM_BclxLM_kr'
p256
g2
(g6
S'\x03b\x9d?\xd2\xbf\x93<'
p257
tp258
Rp259
sS'assemble_pore_sequential_Bak_4_kr'
p260
g2
(g6
S'u\x88\xcfbD\xbal?'
p261
tp262
Rp263
sS'bind_SmacA_XIAP_kf'
p264
g2
(g6
S"\xca\x99\xff'\xe5\xb9\x83?"
p265
tp266
Rp267
sS'bind_BidM_Bcl2_kr'
p268
g2
(g6
S'\xcf/Y\x1dc\xac\xf8>'
p269
tp270
Rp271
sS'pore_transport_complex_BaxA_4_SmacM_kr'
p272
g2
(g6
S'=#Y\xad\xdd\xb9\x0b@'
p273
tp274
Rp275
sS'convert_ApafA_C9_to_Apop_kf'
p276
g2
(g6
S'\xfc\xb4\xf6\x05\xd5\xf2 ?'
p277
tp278
Rp279
sS'bind_BaxA_BclxLM_kr'
p280
g2
(g6
S'u\x88\xa7\xc3\xd1\xe5p='
p281
tp282
Rp283
sS'bind_BadM_Bcl2_kf'
p284
g2
(g6
S'\x15k<\xc5\xc9x\xfb?'
p285
tp286
Rp287
sS'bind_SmacA_XIAP_kr'
p288
g2
(g6
S'\xa5\xfdu\xea\xe2\xe6\xff?'
p289
tp290
Rp291
sS'bind_BidM_Bcl2_kf'
p292
g2
(g6
S'\xf5*\xb3\xedx\xf1F?'
p293
tp294
Rp295
sS'bind_BaxA_BclxLM_kf'
p296
g2
(g6
S'\x05\xb1\xa5\x04\x9c\x9a\x0f>'
p297
tp298
Rp299
sS'bind_BadM_Bcl2_kr'
p300
g2
(g6
S'\x88O\xb2\xeb\tn\x9f?'
p301
tp302
Rp303
sS'pore_transport_complex_BaxA_4_SmacM_kf'
p304
g2
(g6
S'\x04\xdcy\xf4)or@'
p305
tp306
Rp307
sS'convert_ApafA_C9_to_Apop_kr'
p308
g2
(g6
S'\x88-\xa9\xfd\xa7\xc8\x1c?'
p309
tp310
Rp311
sS'bind_L_R_to_LR_kr'
p312
g2
(g6
S'\xfb4\x80F\x81Pp>'
p313
tp314
Rp315
sS'catalyze_BidMBaxM_to_BidM_BaxA_kc'
p316
g2
(g6
S'zT\xb2\x16E\xf2\xa9@'
p317
tp318
Rp319
sS'equilibrate_CytoCC_to_CytoCA_kr'
p320
g2
(g6
S'd\x1e\xf1v\xddFx?'
p321
tp322
Rp323
sS'bind_BaxA_BaxM_to_BaxABaxM_kf'
p324
g2
(g6
S'\xb1Z\xf9\x07\x95\xcc\x1a>'
p325
tp326
Rp327
sS'bind_L_R_to_LR_kf'
p328
g2
(g6
S'\xe3\xb1 \xfd\xf5\xf4\xad?'
p329
tp330
Rp331
sS'catalyze_BidMBakM_to_BidM_BakA_kc'
p332
g2
(g6
S'72\xc0\x91\x8d5\xc6?'
p333
tp334
Rp335
sS'bind_BidM_BakM_to_BidMBakM_kf'
p336
g2
(g6
S'\x17\xf7\x05*0(\xe5;'
p337
tp338
Rp339
sS'pore_transport_dissociate_BakA_4_CytoCC_kc'
p340
g2
(g6
S'\x05e\x90,\xd1C\x03A'
p341
tp342
Rp343
sS'equilibrate_CytoCC_to_CytoCA_kf'
p344
g2
(g6
S';\xe4\xd0\xb7\xec\xd5\xa8>'
p345
tp346
Rp347
sS'equilibrate_SmacC_to_SmacA_kf'
p348
g2
(g6
S'b\x7f\xf19\x8a\xf9\xa3@'
p349
tp350
Rp351
sS'equilibrate_SmacC_to_SmacA_kr'
p352
g2
(g6
S'\xb6\xb18\x07o\x98\xfe?'
p353
tp354
Rp355
sS'bind_BidM_Mcl1M_kr'
p356
g2
(g6
S'\x1e"\x03|8\xf3\xc7?'
p357
tp358
Rp359
sS'bind_C6A_C8pro_to_C6AC8pro_kf'
p360
g2
(g6
S'Vn\xb6\x81b:\x83='
p361
tp362
Rp363
sS'equilibrate_BclxLC_to_BclxLM_kr'
p364
g2
(g6
S'7\x9a\xb6<\x02\x1c\xb4?'
p365
tp366
Rp367
sS'bind_BidM_Mcl1M_kf'
p368
g2
(g6
S'\xb3\x03\xc1lg\x04\xee>'
p369
tp370
Rp371
sS'bind_C6A_C8pro_to_C6AC8pro_kr'
p372
g2
(g6
S'{\xe5m\xe9\xf3\x102>'
p373
tp374
Rp375
sS'bind_BakA_BclxLM_kf'
p376
g2
(g6
S'j\x06\x97\xac\x90\xbd\xdd?'
p377
tp378
Rp379
sS'equilibrate_BidT_to_BidM_kr'
p380
g2
(g6
S'DK?\xa7\x02g.@'
p381
tp382
Rp383
sS'pore_transport_complex_BakA_4_CytoCM_kf'
p384
g2
(g6
S'w\x92_\xb1\x80\xfe.@'
p385
tp386
Rp387
sS'bind_C8A_C3pro_to_C8AC3pro_kf'
p388
g2
(g6
S'\xda\x9cs\x01b0\\>'
p389
tp390
Rp391
sS'equilibrate_BidT_to_BidM_kf'
p392
g2
(g6
S'N\x91\xeb?i\x03\x8e@'
p393
tp394
Rp395
sS'equilibrate_BaxC_to_BaxM_kf'
p396
g2
(g6
S'\xb2\x9cP8*\xf5-?'
p397
tp398
Rp399
sS'bind_BakA_BclxLM_kr'
p400
g2
(g6
S'\xd2\x8b6^N\xd3x@'
p401
tp402
Rp403
sS'bind_C8A_C3pro_to_C8AC3pro_kr'
p404
g2
(g6
S'\xf9\x17\xd8\x8bg\xf4l='
p405
tp406
Rp407
sS'pore_transport_complex_BakA_4_CytoCM_kr'
p408
g2
(g6
S';M\xd5i\x82\xac6>'
p409
tp410
Rp411
sS'catalyze_BaxABaxM_to_BaxA_BaxA_kc'
p412
g2
(g6
S'\x11\xda\xc5\x8d\xab=\xe2?'
p413
tp414
Rp415
sS'bind_DISC_C8pro_to_DISCC8pro_kf'
p416
g2
(g6
S'\xee\xea\xbe\xfe\xdaU\xaaA'
p417
tp418
Rp419
sS'assemble_pore_sequential_Bax_3_kr'
p420
g2
(g6
S'\x8e\xdblQ\x9e\xcc\xca>'
p421
tp422
Rp423
sS'bind_DISC_C8pro_to_DISCC8pro_kr'
p424
g2
(g6
S'\xc4\xba\xa1\xbc\x0e\xff\xda>'
p425
tp426
Rp427
sS'assemble_pore_sequential_Bax_3_kf'
p428
g2
(g6
S'\xb3@\x1do\x97\xd0\xf8>'
p429
tp430
Rp431
s.