(lp0
csympy.core.add
Add
p1
(csympy.core.mul
Mul
p2
(csympy.core.symbol
Symbol
p3
(S'bind_L_R_to_LR_kr'
p4
tp5
Rp6
(dp7
S'_assumptions'
p8
ccopy_reg
_reconstructor
p9
(csympy.core.assumptions
StdFactKB
p10
c__builtin__
dict
p11
(dp12
S'commutative'
p13
I01
stp14
Rp15
sbg3
(S's21'
p16
tp17
Rp18
(dp19
g8
g9
(g10
g11
(dp20
S'positive'
p21
NsS'zero'
p22
Nsg13
I01
sS'negative'
p23
Nstp24
Rp25
sbtp26
Rp27
(dp28
bg2
(csympy.core.numbers
NegativeOne
p29
(tRp30
(dp31
bg3
(S'bind_L_R_to_LR_kf'
p32
tp33
Rp34
(dp35
g8
g9
(g10
g11
(dp36
g13
I01
stp37
Rp38
sbg3
(S's0'
p39
tp40
Rp41
(dp42
g8
g9
(g10
g11
(dp43
g13
I01
stp44
Rp45
sbg3
(S's1'
p46
tp47
Rp48
(dp49
g8
g9
(g10
g11
(dp50
g13
I01
stp51
Rp52
sbtp53
Rp54
(dp55
btp56
Rp57
(dp58
bag57
ag1
(g2
(g3
(S'bind_DISC_flip_kr'
p59
tp60
Rp61
(dp62
g8
g9
(g10
g11
(dp63
g13
I01
stp64
Rp65
sbg3
(S's26'
p66
tp67
Rp68
(dp69
g8
g9
(g10
g11
(dp70
g21
Nsg22
Nsg13
I01
sg23
Nstp71
Rp72
sbtp73
Rp74
(dp75
bg2
(g30
g3
(S'bind_DISC_flip_kf'
p76
tp77
Rp78
(dp79
g8
g9
(g10
g11
(dp80
g13
I01
stp81
Rp82
sbg3
(S's2'
p83
tp84
Rp85
(dp86
g8
g9
(g10
g11
(dp87
g13
I01
stp88
Rp89
sbg3
(S's24'
p90
tp91
Rp92
(dp93
g8
g9
(g10
g11
(dp94
g13
I01
stp95
Rp96
sbtp97
Rp98
(dp99
btp100
Rp101
(dp102
bag1
(g2
(g30
g3
(S'bind_DISC_C8pro_to_DISCC8pro_kf'
p103
tp104
Rp105
(dp106
g8
g9
(g10
g11
(dp107
g13
I01
stp108
Rp109
sbg92
g3
(S's3'
p110
tp111
Rp112
(dp113
g8
g9
(g10
g11
(dp114
g13
I01
stp115
Rp116
sbtp117
Rp118
(dp119
bg2
(g3
(S'bind_C6A_C8pro_to_C6AC8pro_kr'
p120
tp121
Rp122
(dp123
g8
g9
(g10
g11
(dp124
g13
I01
stp125
Rp126
sbg3
(S's45'
p127
tp128
Rp129
(dp130
g8
g9
(g10
g11
(dp131
g21
Nsg22
Nsg13
I01
sg23
Nstp132
Rp133
sbtp134
Rp135
(dp136
bg2
(g30
g3
(S'bind_C6A_C8pro_to_C6AC8pro_kf'
p137
tp138
Rp139
(dp140
g8
g9
(g10
g11
(dp141
g13
I01
stp142
Rp143
sbg112
g3
(S's39'
p144
tp145
Rp146
(dp147
g8
g9
(g10
g11
(dp148
g13
I01
stp149
Rp150
sbtp151
Rp152
(dp153
bg2
(g3
(S'bind_DISC_C8pro_to_DISCC8pro_kr'
p154
tp155
Rp156
(dp157
g8
g9
(g10
g11
(dp158
g13
I01
stp159
Rp160
sbg3
(S's25'
p161
tp162
Rp163
(dp164
g8
g9
(g10
g11
(dp165
g21
Nsg22
Nsg13
I01
sg23
Nstp166
Rp167
sbtp168
Rp169
(dp170
btp171
Rp172
(dp173
bag1
(g2
(g30
g3
(S'bind_BAR_C8A_kf'
p174
tp175
Rp176
(dp177
g8
g9
(g10
g11
(dp178
g13
I01
stp179
Rp180
sbg3
(S's27'
p181
tp182
Rp183
(dp184
g8
g9
(g10
g11
(dp185
g13
I01
stp186
Rp187
sbg3
(S's4'
p188
tp189
Rp190
(dp191
g8
g9
(g10
g11
(dp192
g13
I01
stp193
Rp194
sbtp195
Rp196
(dp197
bg2
(g3
(S'bind_BAR_C8A_kr'
p198
tp199
Rp200
(dp201
g8
g9
(g10
g11
(dp202
g13
I01
stp203
Rp204
sbg3
(S's29'
p205
tp206
Rp207
(dp208
g8
g9
(g10
g11
(dp209
g21
Nsg22
Nsg13
I01
sg23
Nstp210
Rp211
sbtp212
Rp213
(dp214
btp215
Rp216
(dp217
bag1
(g2
(g3
(S'bind_CytoCA_ApafI_to_CytoCAApafI_kr'
p218
tp219
Rp220
(dp221
g8
g9
(g10
g11
(dp222
g13
I01
stp223
Rp224
sbg3
(S's68'
p225
tp226
Rp227
(dp228
g8
g9
(g10
g11
(dp229
g21
Nsg22
Nsg13
I01
sg23
Nstp230
Rp231
sbtp232
Rp233
(dp234
bg2
(g30
g3
(S'bind_CytoCA_ApafI_to_CytoCAApafI_kf'
p235
tp236
Rp237
(dp238
g8
g9
(g10
g11
(dp239
g13
I01
stp240
Rp241
sbg3
(S's5'
p242
tp243
Rp244
(dp245
g8
g9
(g10
g11
(dp246
g13
I01
stp247
Rp248
sbg3
(S's67'
p249
tp250
Rp251
(dp252
g8
g9
(g10
g11
(dp253
g21
Nsg22
Nsg13
I01
sg23
Nstp254
Rp255
sbtp256
Rp257
(dp258
btp259
Rp260
(dp261
bag1
(g2
(g3
(S'bind_C8A_C3pro_to_C8AC3pro_kr'
p262
tp263
Rp264
(dp265
g8
g9
(g10
g11
(dp266
g13
I01
stp267
Rp268
sbg3
(S's30'
p269
tp270
Rp271
(dp272
g8
g9
(g10
g11
(dp273
g21
Nsg22
Nsg13
I01
sg23
Nstp274
Rp275
sbtp276
Rp277
(dp278
bg2
(g30
g3
(S'bind_Apop_C3pro_to_ApopC3pro_kf'
p279
tp280
Rp281
(dp282
g8
g9
(g10
g11
(dp283
g13
I01
stp284
Rp285
sbg3
(S's6'
p286
tp287
Rp288
(dp289
g8
g9
(g10
g11
(dp290
g13
I01
stp291
Rp292
sbg3
(S's71'
p293
tp294
Rp295
(dp296
g8
g9
(g10
g11
(dp297
g21
Nsg22
Nsg13
I01
sg23
Nstp298
Rp299
sbtp300
Rp301
(dp302
bg2
(g30
g3
(S'bind_C8A_C3pro_to_C8AC3pro_kf'
p303
tp304
Rp305
(dp306
g8
g9
(g10
g11
(dp307
g13
I01
stp308
Rp309
sbg183
g288
tp310
Rp311
(dp312
bg2
(g3
(S'bind_Apop_C3pro_to_ApopC3pro_kr'
p313
tp314
Rp315
(dp316
g8
g9
(g10
g11
(dp317
g13
I01
stp318
Rp319
sbg3
(S's72'
p320
tp321
Rp322
(dp323
g8
g9
(g10
g11
(dp324
g21
Nsg22
Nsg13
I01
sg23
Nstp325
Rp326
sbtp327
Rp328
(dp329
btp330
Rp331
(dp332
bag1
(g2
(g3
(S'bind_C3A_C6pro_to_C3AC6pro_kr'
p333
tp334
Rp335
(dp336
g8
g9
(g10
g11
(dp337
g13
I01
stp338
Rp339
sbg3
(S's35'
p340
tp341
Rp342
(dp343
g8
g9
(g10
g11
(dp344
g21
Nsg22
Nsg13
I01
sg23
Nstp345
Rp346
sbtp347
Rp348
(dp349
bg2
(g30
g3
(S'bind_C3A_C6pro_to_C3AC6pro_kf'
p350
tp351
Rp352
(dp353
g8
g9
(g10
g11
(dp354
g13
I01
stp355
Rp356
sbg3
(S's32'
p357
tp358
Rp359
(dp360
g8
g9
(g10
g11
(dp361
g13
I01
stp362
Rp363
sbg3
(S's7'
p364
tp365
Rp366
(dp367
g8
g9
(g10
g11
(dp368
g13
I01
stp369
Rp370
sbtp371
Rp372
(dp373
btp374
Rp375
(dp376
bag1
(g2
(g30
g3
(S'convert_ApafA_C9_to_Apop_kf'
p377
tp378
Rp379
(dp380
g8
g9
(g10
g11
(dp381
g13
I01
stp382
Rp383
sbg3
(S's70'
p384
tp385
Rp386
(dp387
g8
g9
(g10
g11
(dp388
g13
I01
stp389
Rp390
sbg3
(S's8'
p391
tp392
Rp393
(dp394
g8
g9
(g10
g11
(dp395
g13
I01
stp396
Rp397
sbtp398
Rp399
(dp400
bg2
(g3
(S'convert_ApafA_C9_to_Apop_kr'
p401
tp402
Rp403
(dp404
g8
g9
(g10
g11
(dp405
g13
I01
stp406
Rp407
sbg295
tp408
Rp409
(dp410
btp411
Rp412
(dp413
bag1
(g2
(g3
(S'bind_C3A_PARPU_to_C3APARPU_kr'
p414
tp415
Rp416
(dp417
g8
g9
(g10
g11
(dp418
g13
I01
stp419
Rp420
sbg3
(S's34'
p421
tp422
Rp423
(dp424
g8
g9
(g10
g11
(dp425
g21
Nsg22
Nsg13
I01
sg23
Nstp426
Rp427
sbtp428
Rp429
(dp430
bg2
(g30
g3
(S'bind_C3A_PARPU_to_C3APARPU_kf'
p431
tp432
Rp433
(dp434
g8
g9
(g10
g11
(dp435
g13
I01
stp436
Rp437
sbg359
g3
(S's9'
p438
tp439
Rp440
(dp441
g8
g9
(g10
g11
(dp442
g13
I01
stp443
Rp444
sbtp445
Rp446
(dp447
btp448
Rp449
(dp450
bag1
(g2
(g30
g3
(S'bind_XIAP_C3A_to_XIAPC3A_kf'
p451
tp452
Rp453
(dp454
g8
g9
(g10
g11
(dp455
g13
I01
stp456
Rp457
sbg3
(S's10'
p458
tp459
Rp460
(dp461
g8
g9
(g10
g11
(dp462
g13
I01
stp463
Rp464
sbg359
tp465
Rp466
(dp467
bg2
(g30
g3
(S'bind_SmacA_XIAP_kf'
p468
tp469
Rp470
(dp471
g8
g9
(g10
g11
(dp472
g13
I01
stp473
Rp474
sbg460
g3
(S's66'
p475
tp476
Rp477
(dp478
g8
g9
(g10
g11
(dp479
g21
Nsg22
Nsg13
I01
sg23
Nstp480
Rp481
sbtp482
Rp483
(dp484
bg2
(g3
(S'bind_Apop_XIAP_kr'
p485
tp486
Rp487
(dp488
g8
g9
(g10
g11
(dp489
g13
I01
stp490
Rp491
sbg3
(S's73'
p492
tp493
Rp494
(dp495
g8
g9
(g10
g11
(dp496
g21
Nsg22
Nsg13
I01
sg23
Nstp497
Rp498
sbtp499
Rp500
(dp501
bg2
(g3
(S'bind_SmacA_XIAP_kr'
p502
tp503
Rp504
(dp505
g8
g9
(g10
g11
(dp506
g13
I01
stp507
Rp508
sbg3
(S's69'
p509
tp510
Rp511
(dp512
g8
g9
(g10
g11
(dp513
g21
Nsg22
Nsg13
I01
sg23
Nstp514
Rp515
sbtp516
Rp517
(dp518
bg2
(g30
g3
(S'bind_Apop_XIAP_kf'
p519
tp520
Rp521
(dp522
g8
g9
(g10
g11
(dp523
g13
I01
stp524
Rp525
sbg460
g295
tp526
Rp527
(dp528
bg2
(g3
(S'catalyze_XIAPC3A_to_XIAP_C3ub_kc'
p529
tp530
Rp531
(dp532
g8
g9
(g10
g11
(dp533
g13
I01
stp534
Rp535
sbg3
(S's33'
p536
tp537
Rp538
(dp539
g8
g9
(g10
g11
(dp540
g21
Nsg22
Nsg13
I01
sg23
Nstp541
Rp542
sbtp543
Rp544
(dp545
bg2
(g3
(S'bind_XIAP_C3A_to_XIAPC3A_kr'
p546
tp547
Rp548
(dp549
g8
g9
(g10
g11
(dp550
g13
I01
stp551
Rp552
sbg538
tp553
Rp554
(dp555
btp556
Rp557
(dp558
bag1
(g2
(g30
g3
(S'bind_C8A_BidU_to_C8ABidU_kf'
p559
tp560
Rp561
(dp562
g8
g9
(g10
g11
(dp563
g13
I01
stp564
Rp565
sbg3
(S's11'
p566
tp567
Rp568
(dp569
g8
g9
(g10
g11
(dp570
g13
I01
stp571
Rp572
sbg183
tp573
Rp574
(dp575
bg2
(g3
(S'bind_C8A_BidU_to_C8ABidU_kr'
p576
tp577
Rp578
(dp579
g8
g9
(g10
g11
(dp580
g13
I01
stp581
Rp582
sbg3
(S's28'
p583
tp584
Rp585
(dp586
g8
g9
(g10
g11
(dp587
g21
Nsg22
Nsg13
I01
sg23
Nstp588
Rp589
sbtp590
Rp591
(dp592
btp593
Rp594
(dp595
bacsympy.core.numbers
Zero
p596
(tRp597
(dp598
bag1
(g2
(g30
g3
(S'equilibrate_BaxC_to_BaxM_kf'
p599
tp600
Rp601
(dp602
g8
g9
(g10
g11
(dp603
g13
I01
stp604
Rp605
sbg3
(S's13'
p606
tp607
Rp608
(dp609
g8
g9
(g10
g11
(dp610
g21
Nsg22
Nsg13
I01
sg23
Nstp611
Rp612
sbtp613
Rp614
(dp615
bg2
(g3
(S'equilibrate_BaxC_to_BaxM_kr'
p616
tp617
Rp618
(dp619
g8
g9
(g10
g11
(dp620
g13
I01
stp621
Rp622
sbg3
(S's22'
p623
tp624
Rp625
(dp626
g8
g9
(g10
g11
(dp627
g21
Nsg22
Nsg13
I01
sg23
Nstp628
Rp629
sbtp630
Rp631
(dp632
btp633
Rp634
(dp635
bag1
(g2
(g3
(S'bind_BidM_BakM_to_BidMBakM_kr'
p636
tp637
Rp638
(dp639
g8
g9
(g10
g11
(dp640
g13
I01
stp641
Rp642
sbg3
(S's41'
p643
tp644
Rp645
(dp646
g8
g9
(g10
g11
(dp647
g21
Nsg22
Nsg13
I01
sg23
Nstp648
Rp649
sbtp650
Rp651
(dp652
bg2
(g30
g3
(S'bind_BidM_BakM_to_BidMBakM_kf'
p653
tp654
Rp655
(dp656
g8
g9
(g10
g11
(dp657
g13
I01
stp658
Rp659
sbg3
(S's14'
p660
tp661
Rp662
(dp663
g8
g9
(g10
g11
(dp664
g13
I01
stp665
Rp666
sbg3
(S's36'
p667
tp668
Rp669
(dp670
g8
g9
(g10
g11
(dp671
g21
Nsg22
Nsg13
I01
sg23
Nstp672
Rp673
sbtp674
Rp675
(dp676
bg2
(g3
(S'bind_BakA_BakM_to_BakABakM_kr'
p677
tp678
Rp679
(dp680
g8
g9
(g10
g11
(dp681
g13
I01
stp682
Rp683
sbg3
(S's49'
p684
tp685
Rp686
(dp687
g8
g9
(g10
g11
(dp688
g21
Nsg22
Nsg13
I01
sg23
Nstp689
Rp690
sbtp691
Rp692
(dp693
bg2
(g30
g3
(S'bind_BakA_BakM_to_BakABakM_kf'
p694
tp695
Rp696
(dp697
g8
g9
(g10
g11
(dp698
g13
I01
stp699
Rp700
sbg662
g3
(S's47'
p701
tp702
Rp703
(dp704
g8
g9
(g10
g11
(dp705
g13
I01
stp706
Rp707
sbtp708
Rp709
(dp710
btp711
Rp712
(dp713
bag1
(g2
(g30
g3
(S'bind_BidM_Bcl2_kf'
p714
tp715
Rp716
(dp717
g8
g9
(g10
g11
(dp718
g13
I01
stp719
Rp720
sbg3
(S's15'
p721
tp722
Rp723
(dp724
g8
g9
(g10
g11
(dp725
g13
I01
stp726
Rp727
sbg669
tp728
Rp729
(dp730
bg2
(g30
g3
(S'bind_BaxA_Bcl2_kf'
p731
tp732
Rp733
(dp734
g8
g9
(g10
g11
(dp735
g13
I01
stp736
Rp737
sbg723
g3
(S's46'
p738
tp739
Rp740
(dp741
g8
g9
(g10
g11
(dp742
g13
I01
stp743
Rp744
sbtp745
Rp746
(dp747
bg2
(g3
(S'bind_BidM_Bcl2_kr'
p748
tp749
Rp750
(dp751
g8
g9
(g10
g11
(dp752
g13
I01
stp753
Rp754
sbg3
(S's42'
p755
tp756
Rp757
(dp758
g8
g9
(g10
g11
(dp759
g21
Nsg22
Nsg13
I01
sg23
Nstp760
Rp761
sbtp762
Rp763
(dp764
bg2
(g3
(S'bind_BaxA_Bcl2_kr'
p765
tp766
Rp767
(dp768
g8
g9
(g10
g11
(dp769
g13
I01
stp770
Rp771
sbg3
(S's50'
p772
tp773
Rp774
(dp775
g8
g9
(g10
g11
(dp776
g21
Nsg22
Nsg13
I01
sg23
Nstp777
Rp778
sbtp779
Rp780
(dp781
btp782
Rp783
(dp784
bag1
(g2
(g3
(S'equilibrate_BclxLC_to_BclxLM_kr'
p785
tp786
Rp787
(dp788
g8
g9
(g10
g11
(dp789
g13
I01
stp790
Rp791
sbg3
(S's23'
p792
tp793
Rp794
(dp795
g8
g9
(g10
g11
(dp796
g21
Nsg22
Nsg13
I01
sg23
Nstp797
Rp798
sbtp799
Rp800
(dp801
bg2
(g30
g3
(S'equilibrate_BclxLC_to_BclxLM_kf'
p802
tp803
Rp804
(dp805
g8
g9
(g10
g11
(dp806
g13
I01
stp807
Rp808
sbg3
(S's16'
p809
tp810
Rp811
(dp812
g8
g9
(g10
g11
(dp813
g21
Nsg22
Nsg13
I01
sg23
Nstp814
Rp815
sbtp816
Rp817
(dp818
btp819
Rp820
(dp821
bag1
(g2
(g30
g3
(S'bind_BakA_Mcl1_kf'
p822
tp823
Rp824
(dp825
g8
g9
(g10
g11
(dp826
g13
I01
stp827
Rp828
sbg3
(S's17'
p829
tp830
Rp831
(dp832
g8
g9
(g10
g11
(dp833
g13
I01
stp834
Rp835
sbg703
tp836
Rp837
(dp838
bg2
(g30
g3
(S'bind_BidM_Mcl1M_kf'
p839
tp840
Rp841
(dp842
g8
g9
(g10
g11
(dp843
g13
I01
stp844
Rp845
sbg831
g669
tp846
Rp847
(dp848
bg2
(g3
(S'bind_BidM_Mcl1M_kr'
p849
tp850
Rp851
(dp852
g8
g9
(g10
g11
(dp853
g13
I01
stp854
Rp855
sbg3
(S's44'
p856
tp857
Rp858
(dp859
g8
g9
(g10
g11
(dp860
g21
Nsg22
Nsg13
I01
sg23
Nstp861
Rp862
sbtp863
Rp864
(dp865
bg2
(g3
(S'bind_BakA_Mcl1_kr'
p866
tp867
Rp868
(dp869
g8
g9
(g10
g11
(dp870
g13
I01
stp871
Rp872
sbg3
(S's53'
p873
tp874
Rp875
(dp876
g8
g9
(g10
g11
(dp877
g21
Nsg22
Nsg13
I01
sg23
Nstp878
Rp879
sbtp880
Rp881
(dp882
btp883
Rp884
(dp885
bag597
ag1
(g2
(g30
g3
(S'pore_transport_complex_BaxA_4_CytoCM_kf'
p886
tp887
Rp888
(dp889
g8
g9
(g10
g11
(dp890
g13
I01
stp891
Rp892
sbg3
(S's19'
p893
tp894
Rp895
(dp896
g8
g9
(g10
g11
(dp897
g13
I01
stp898
Rp899
sbg3
(S's58'
p900
tp901
Rp902
(dp903
g8
g9
(g10
g11
(dp904
g21
Nsg22
Nsg13
I01
sg23
Nstp905
Rp906
sbtp907
Rp908
(dp909
bg2
(g30
g3
(S'pore_transport_complex_BakA_4_CytoCM_kf'
p910
tp911
Rp912
(dp913
g8
g9
(g10
g11
(dp914
g13
I01
stp915
Rp916
sbg895
g3
(S's59'
p917
tp918
Rp919
(dp920
g8
g9
(g10
g11
(dp921
g21
Nsg22
Nsg13
I01
sg23
Nstp922
Rp923
sbtp924
Rp925
(dp926
bg2
(g3
(S'pore_transport_complex_BaxA_4_CytoCM_kr'
p927
tp928
Rp929
(dp930
g8
g9
(g10
g11
(dp931
g13
I01
stp932
Rp933
sbg3
(S's60'
p934
tp935
Rp936
(dp937
g8
g9
(g10
g11
(dp938
g21
Nsg22
Nsg13
I01
sg23
Nstp939
Rp940
sbtp941
Rp942
(dp943
bg2
(g3
(S'pore_transport_complex_BakA_4_CytoCM_kr'
p944
tp945
Rp946
(dp947
g8
g9
(g10
g11
(dp948
g13
I01
stp949
Rp950
sbg3
(S's62'
p951
tp952
Rp953
(dp954
g8
g9
(g10
g11
(dp955
g21
Nsg22
Nsg13
I01
sg23
Nstp956
Rp957
sbtp958
Rp959
(dp960
btp961
Rp962
(dp963
bag1
(g2
(g30
g3
(S'pore_transport_complex_BakA_4_SmacM_kf'
p964
tp965
Rp966
(dp967
g8
g9
(g10
g11
(dp968
g13
I01
stp969
Rp970
sbg3
(S's20'
p971
tp972
Rp973
(dp974
g8
g9
(g10
g11
(dp975
g13
I01
stp976
Rp977
sbg919
tp978
Rp979
(dp980
bg2
(g3
(S'pore_transport_complex_BakA_4_SmacM_kr'
p981
tp982
Rp983
(dp984
g8
g9
(g10
g11
(dp985
g13
I01
stp986
Rp987
sbg3
(S's63'
p988
tp989
Rp990
(dp991
g8
g9
(g10
g11
(dp992
g21
Nsg22
Nsg13
I01
sg23
Nstp993
Rp994
sbtp995
Rp996
(dp997
bg2
(g3
(S'pore_transport_complex_BaxA_4_SmacM_kr'
p998
tp999
Rp1000
(dp1001
g8
g9
(g10
g11
(dp1002
g13
I01
stp1003
Rp1004
sbg3
(S's61'
p1005
tp1006
Rp1007
(dp1008
g8
g9
(g10
g11
(dp1009
g21
Nsg22
Nsg13
I01
sg23
Nstp1010
Rp1011
sbtp1012
Rp1013
(dp1014
bg2
(g30
g3
(S'pore_transport_complex_BaxA_4_SmacM_kf'
p1015
tp1016
Rp1017
(dp1018
g8
g9
(g10
g11
(dp1019
g13
I01
stp1020
Rp1021
sbg973
g902
tp1022
Rp1023
(dp1024
btp1025
Rp1026
(dp1027
bag1
(g2
(g34
g41
g48
tp1028
Rp1029
(dp1030
bg2
(g30
g6
g18
tp1031
Rp1032
(dp1033
bg2
(g30
g3
(S'convert_LR_to_DISC_kc'
p1034
tp1035
Rp1036
(dp1037
g8
g9
(g10
g11
(dp1038
g13
I01
stp1039
Rp1040
sbg18
tp1041
Rp1042
(dp1043
btp1044
Rp1045
(dp1046
bag1
(g2
(g30
g3
(S'bind_BidM_BaxM_to_BidMBaxM_kf'
p1047
tp1048
Rp1049
(dp1050
g8
g9
(g10
g11
(dp1051
g13
I01
stp1052
Rp1053
sbg625
g669
tp1054
Rp1055
(dp1056
bg2
(g3
(S'bind_BidM_BaxM_to_BidMBaxM_kr'
p1057
tp1058
Rp1059
(dp1060
g8
g9
(g10
g11
(dp1061
g13
I01
stp1062
Rp1063
sbg3
(S's40'
p1064
tp1065
Rp1066
(dp1067
g8
g9
(g10
g11
(dp1068
g21
Nsg22
Nsg13
I01
sg23
Nstp1069
Rp1070
sbtp1071
Rp1072
(dp1073
bg2
(g30
g3
(S'bind_BaxA_BaxM_to_BaxABaxM_kf'
p1074
tp1075
Rp1076
(dp1077
g8
g9
(g10
g11
(dp1078
g13
I01
stp1079
Rp1080
sbg625
g740
tp1081
Rp1082
(dp1083
bg2
(g601
g608
tp1084
Rp1085
(dp1086
bg2
(g3
(S'bind_BaxA_BaxM_to_BaxABaxM_kr'
p1087
tp1088
Rp1089
(dp1090
g8
g9
(g10
g11
(dp1091
g13
I01
stp1092
Rp1093
sbg3
(S's48'
p1094
tp1095
Rp1096
(dp1097
g8
g9
(g10
g11
(dp1098
g21
Nsg22
Nsg13
I01
sg23
Nstp1099
Rp1100
sbtp1101
Rp1102
(dp1103
bg2
(g30
g618
g625
tp1104
Rp1105
(dp1106
btp1107
Rp1108
(dp1109
bag1
(g2
(g3
(S'bind_BakA_BclxLM_kr'
p1110
tp1111
Rp1112
(dp1113
g8
g9
(g10
g11
(dp1114
g13
I01
stp1115
Rp1116
sbg3
(S's52'
p1117
tp1118
Rp1119
(dp1120
g8
g9
(g10
g11
(dp1121
g21
Nsg22
Nsg13
I01
sg23
Nstp1122
Rp1123
sbtp1124
Rp1125
(dp1126
bg2
(g30
g3
(S'bind_BakA_BclxLM_kf'
p1127
tp1128
Rp1129
(dp1130
g8
g9
(g10
g11
(dp1131
g13
I01
stp1132
Rp1133
sbg794
g703
tp1134
Rp1135
(dp1136
bg2
(g30
g787
g794
tp1137
Rp1138
(dp1139
bg2
(g30
g3
(S'bind_BidM_BclxLM_kf'
p1140
tp1141
Rp1142
(dp1143
g8
g9
(g10
g11
(dp1144
g13
I01
stp1145
Rp1146
sbg794
g669
tp1147
Rp1148
(dp1149
bg2
(g804
g811
tp1150
Rp1151
(dp1152
bg2
(g3
(S'bind_BaxA_BclxLM_kr'
p1153
tp1154
Rp1155
(dp1156
g8
g9
(g10
g11
(dp1157
g13
I01
stp1158
Rp1159
sbg3
(S's51'
p1160
tp1161
Rp1162
(dp1163
g8
g9
(g10
g11
(dp1164
g21
Nsg22
Nsg13
I01
sg23
Nstp1165
Rp1166
sbtp1167
Rp1168
(dp1169
bg2
(g30
g3
(S'bind_BaxA_BclxLM_kf'
p1170
tp1171
Rp1172
(dp1173
g8
g9
(g10
g11
(dp1174
g13
I01
stp1175
Rp1176
sbg794
g740
tp1177
Rp1178
(dp1179
bg2
(g3
(S'bind_BidM_BclxLM_kr'
p1180
tp1181
Rp1182
(dp1183
g8
g9
(g10
g11
(dp1184
g13
I01
stp1185
Rp1186
sbg3
(S's43'
p1187
tp1188
Rp1189
(dp1190
g8
g9
(g10
g11
(dp1191
g21
Nsg22
Nsg13
I01
sg23
Nstp1192
Rp1193
sbtp1194
Rp1195
(dp1196
btp1197
Rp1198
(dp1199
bag1
(g2
(g30
g105
g92
g112
tp1200
Rp1201
(dp1202
bg74
g2
(g30
g78
g85
g92
tp1203
Rp1204
(dp1205
bg2
(g1036
g18
tp1206
Rp1207
(dp1208
bg169
g2
(g3
(S'catalyze_DISCC8pro_to_DISC_C8A_kc'
p1209
tp1210
Rp1211
(dp1212
g8
g9
(g10
g11
(dp1213
g13
I01
stp1214
Rp1215
sbg163
tp1216
Rp1217
(dp1218
btp1219
Rp1220
(dp1221
bag1
(g2
(g30
g156
g163
tp1222
Rp1223
(dp1224
bg2
(g30
g1211
g163
tp1225
Rp1226
(dp1227
bg2
(g105
g92
g112
tp1228
Rp1229
(dp1230
btp1231
Rp1232
(dp1233
bag1
(g2
(g30
g61
g68
tp1234
Rp1235
(dp1236
bg2
(g78
g85
g92
tp1237
Rp1238
(dp1239
btp1240
Rp1241
(dp1242
bag1
(g2
(g30
g561
g568
g183
tp1243
Rp1244
(dp1245
bg2
(g30
g176
g183
g190
tp1246
Rp1247
(dp1248
bg2
(g3
(S'catalyze_C8AC3pro_to_C8A_C3A_kc'
p1249
tp1250
Rp1251
(dp1252
g8
g9
(g10
g11
(dp1253
g13
I01
stp1254
Rp1255
sbg271
tp1256
Rp1257
(dp1258
bg213
g277
g2
(g3
(S'catalyze_C8ABidU_to_C8A_BidT_kc'
p1259
tp1260
Rp1261
(dp1262
g8
g9
(g10
g11
(dp1263
g13
I01
stp1264
Rp1265
sbg585
tp1266
Rp1267
(dp1268
bg2
(g3
(S'catalyze_C6AC8pro_to_C6A_C8A_kc'
p1269
tp1270
Rp1271
(dp1272
g8
g9
(g10
g11
(dp1273
g13
I01
stp1274
Rp1275
sbg129
tp1276
Rp1277
(dp1278
bg591
g2
(g30
g305
g183
g288
tp1279
Rp1280
(dp1281
bg1217
tp1282
Rp1283
(dp1284
bag1
(g2
(g30
g1261
g585
tp1285
Rp1286
(dp1287
bg2
(g30
g578
g585
tp1288
Rp1289
(dp1290
bg2
(g561
g568
g183
tp1291
Rp1292
(dp1293
btp1294
Rp1295
(dp1296
bag1
(g2
(g30
g200
g207
tp1297
Rp1298
(dp1299
bg2
(g176
g183
g190
tp1300
Rp1301
(dp1302
btp1303
Rp1304
(dp1305
bag1
(g2
(g30
g1251
g271
tp1306
Rp1307
(dp1308
bg2
(g305
g183
g288
tp1309
Rp1310
(dp1311
bg2
(g30
g264
g271
tp1312
Rp1313
(dp1314
btp1315
Rp1316
(dp1317
bag1
(g2
(g3
(S'equilibrate_BidT_to_BidM_kr'
p1318
tp1319
Rp1320
(dp1321
g8
g9
(g10
g11
(dp1322
g13
I01
stp1323
Rp1324
sbg669
tp1325
Rp1326
(dp1327
bg2
(g30
g3
(S'equilibrate_BidT_to_BidM_kf'
p1328
tp1329
Rp1330
(dp1331
g8
g9
(g10
g11
(dp1332
g13
I01
stp1333
Rp1334
sbg3
(S's31'
p1335
tp1336
Rp1337
(dp1338
g8
g9
(g10
g11
(dp1339
g21
Nsg22
Nsg13
I01
sg23
Nstp1340
Rp1341
sbtp1342
Rp1343
(dp1344
bg1267
tp1345
Rp1346
(dp1347
bag1
(g2
(g3
(S'catalyze_C3APARPU_to_C3A_PARPC_kc'
p1348
tp1349
Rp1350
(dp1351
g8
g9
(g10
g11
(dp1352
g13
I01
stp1353
Rp1354
sbg423
tp1355
Rp1356
(dp1357
bg2
(g30
g453
g460
g359
tp1358
Rp1359
(dp1360
bg2
(g3
(S'catalyze_C3AC6pro_to_C3A_C6A_kc'
p1361
tp1362
Rp1363
(dp1364
g8
g9
(g10
g11
(dp1365
g13
I01
stp1366
Rp1367
sbg342
tp1368
Rp1369
(dp1370
bg429
g1257
g348
g2
(g30
g352
g359
g366
tp1371
Rp1372
(dp1373
bg2
(g3
(S'catalyze_ApopC3pro_to_Apop_C3A_kc'
p1374
tp1375
Rp1376
(dp1377
g8
g9
(g10
g11
(dp1378
g13
I01
stp1379
Rp1380
sbg322
tp1381
Rp1382
(dp1383
bg2
(g30
g433
g359
g440
tp1384
Rp1385
(dp1386
bg554
tp1387
Rp1388
(dp1389
bag1
(g2
(g30
g548
g538
tp1390
Rp1391
(dp1392
bg2
(g30
g531
g538
tp1393
Rp1394
(dp1395
bg2
(g453
g460
g359
tp1396
Rp1397
(dp1398
btp1399
Rp1400
(dp1401
bag1
(g2
(g30
g1350
g423
tp1402
Rp1403
(dp1404
bg2
(g433
g359
g440
tp1405
Rp1406
(dp1407
bg2
(g30
g416
g423
tp1408
Rp1409
(dp1410
btp1411
Rp1412
(dp1413
bag1
(g2
(g352
g359
g366
tp1414
Rp1415
(dp1416
bg2
(g30
g335
g342
tp1417
Rp1418
(dp1419
bg2
(g30
g1363
g342
tp1420
Rp1421
(dp1422
btp1423
Rp1424
(dp1425
bag1
(g2
(g30
g716
g723
g669
tp1426
Rp1427
(dp1428
bg2
(g30
g1049
g625
g669
tp1429
Rp1430
(dp1431
bg651
g2
(g30
g655
g662
g669
tp1432
Rp1433
(dp1434
bg2
(g30
g1320
g669
tp1435
Rp1436
(dp1437
bg2
(g3
(S'catalyze_BidMBakM_to_BidM_BakA_kc'
p1438
tp1439
Rp1440
(dp1441
g8
g9
(g10
g11
(dp1442
g13
I01
stp1443
Rp1444
sbg645
tp1445
Rp1446
(dp1447
bg2
(g3
(S'catalyze_BidMBaxM_to_BidM_BaxA_kc'
p1448
tp1449
Rp1450
(dp1451
g8
g9
(g10
g11
(dp1452
g13
I01
stp1453
Rp1454
sbg1066
tp1455
Rp1456
(dp1457
bg763
g1072
g2
(g30
g1142
g794
g669
tp1458
Rp1459
(dp1460
bg2
(g30
g841
g831
g669
tp1461
Rp1462
(dp1463
bg2
(g1330
g1337
tp1464
Rp1465
(dp1466
bg1195
g864
tp1467
Rp1468
(dp1469
bag544
ag1356
ag1
(g1369
g135
g1277
g2
(g30
g139
g112
g146
tp1470
Rp1471
(dp1472
btp1473
Rp1474
(dp1475
bag1
(g2
(g30
g1450
g1066
tp1476
Rp1477
(dp1478
bg2
(g30
g1059
g1066
tp1479
Rp1480
(dp1481
bg2
(g1049
g625
g669
tp1482
Rp1483
(dp1484
btp1485
Rp1486
(dp1487
bag1
(g2
(g30
g1440
g645
tp1488
Rp1489
(dp1490
bg2
(g30
g638
g645
tp1491
Rp1492
(dp1493
bg2
(g655
g662
g669
tp1494
Rp1495
(dp1496
btp1497
Rp1498
(dp1499
bag1
(g2
(g30
g750
g757
tp1500
Rp1501
(dp1502
bg2
(g716
g723
g669
tp1503
Rp1504
(dp1505
btp1506
Rp1507
(dp1508
bag1
(g2
(g30
g1182
g1189
tp1509
Rp1510
(dp1511
bg2
(g1142
g794
g669
tp1512
Rp1513
(dp1514
btp1515
Rp1516
(dp1517
bag1
(g2
(g30
g851
g858
tp1518
Rp1519
(dp1520
bg2
(g841
g831
g669
tp1521
Rp1522
(dp1523
btp1524
Rp1525
(dp1526
bag1
(g2
(g30
g1271
g129
tp1527
Rp1528
(dp1529
bg2
(g139
g112
g146
tp1530
Rp1531
(dp1532
bg2
(g30
g122
g129
tp1533
Rp1534
(dp1535
btp1536
Rp1537
(dp1538
bag1
(g2
(csympy.core.numbers
Integer
p1539
(I2
tp1540
Rp1541
(dp1542
bg3
(S'assemble_pore_sequential_Bax_2_kr'
p1543
tp1544
Rp1545
(dp1546
g8
g9
(g10
g11
(dp1547
g13
I01
stp1548
Rp1549
sbg3
(S's54'
p1550
tp1551
Rp1552
(dp1553
g8
g9
(g10
g11
(dp1554
g21
Nsg22
Nsg13
I01
sg23
Nstp1555
Rp1556
sbtp1557
Rp1558
(dp1559
bg1456
g2
(g30
g733
g723
g740
tp1560
Rp1561
(dp1562
bg2
(g1539
(I-2
tp1563
Rp1564
(dp1565
bg3
(S'assemble_pore_sequential_Bax_2_kf'
p1566
tp1567
Rp1568
(dp1569
g8
g9
(g10
g11
(dp1570
g13
I01
stp1571
Rp1572
sbcsympy.core.power
Pow
p1573
(g740
g1541
tp1574
Rp1575
(dp1576
btp1577
Rp1578
(dp1579
bg2
(g1541
g3
(S'catalyze_BaxABaxM_to_BaxA_BaxA_kc'
p1580
tp1581
Rp1582
(dp1583
g8
g9
(g10
g11
(dp1584
g13
I01
stp1585
Rp1586
sbg1096
tp1587
Rp1588
(dp1589
bg1168
g2
(g30
g1076
g625
g740
tp1590
Rp1591
(dp1592
bg2
(g30
g1172
g794
g740
tp1593
Rp1594
(dp1595
bg2
(g3
(S'assemble_pore_sequential_Bax_3_kr'
p1596
tp1597
Rp1598
(dp1599
g8
g9
(g10
g11
(dp1600
g13
I01
stp1601
Rp1602
sbg3
(S's56'
p1603
tp1604
Rp1605
(dp1606
g8
g9
(g10
g11
(dp1607
g21
Nsg22
Nsg13
I01
sg23
Nstp1608
Rp1609
sbtp1610
Rp1611
(dp1612
bg2
(g30
g3
(S'assemble_pore_sequential_Bax_4_kf'
p1613
tp1614
Rp1615
(dp1616
g8
g9
(g10
g11
(dp1617
g13
I01
stp1618
Rp1619
sbg740
g1605
tp1620
Rp1621
(dp1622
bg2
(g30
g3
(S'assemble_pore_sequential_Bax_3_kf'
p1623
tp1624
Rp1625
(dp1626
g8
g9
(g10
g11
(dp1627
g13
I01
stp1628
Rp1629
sbg740
g1552
tp1630
Rp1631
(dp1632
bg2
(g3
(S'assemble_pore_sequential_Bax_4_kr'
p1633
tp1634
Rp1635
(dp1636
g8
g9
(g10
g11
(dp1637
g13
I01
stp1638
Rp1639
sbg902
tp1640
Rp1641
(dp1642
bg1102
g780
tp1643
Rp1644
(dp1645
bag1
(g1125
g2
(g30
g3
(S'assemble_pore_sequential_Bak_3_kf'
p1646
tp1647
Rp1648
(dp1649
g8
g9
(g10
g11
(dp1650
g13
I01
stp1651
Rp1652
sbg703
g3
(S's55'
p1653
tp1654
Rp1655
(dp1656
g8
g9
(g10
g11
(dp1657
g21
Nsg22
Nsg13
I01
sg23
Nstp1658
Rp1659
sbtp1660
Rp1661
(dp1662
bg1446
g2
(g30
g1129
g794
g703
tp1663
Rp1664
(dp1665
bg2
(g1541
g3
(S'catalyze_BakABakM_to_BakA_BakA_kc'
p1666
tp1667
Rp1668
(dp1669
g8
g9
(g10
g11
(dp1670
g13
I01
stp1671
Rp1672
sbg686
tp1673
Rp1674
(dp1675
bg2
(g3
(S'assemble_pore_sequential_Bak_3_kr'
p1676
tp1677
Rp1678
(dp1679
g8
g9
(g10
g11
(dp1680
g13
I01
stp1681
Rp1682
sbg3
(S's57'
p1683
tp1684
Rp1685
(dp1686
g8
g9
(g10
g11
(dp1687
g21
Nsg22
Nsg13
I01
sg23
Nstp1688
Rp1689
sbtp1690
Rp1691
(dp1692
bg2
(g30
g824
g831
g703
tp1693
Rp1694
(dp1695
bg2
(g1541
g3
(S'assemble_pore_sequential_Bak_2_kr'
p1696
tp1697
Rp1698
(dp1699
g8
g9
(g10
g11
(dp1700
g13
I01
stp1701
Rp1702
sbg1655
tp1703
Rp1704
(dp1705
bg2
(g30
g3
(S'assemble_pore_sequential_Bak_4_kf'
p1706
tp1707
Rp1708
(dp1709
g8
g9
(g10
g11
(dp1710
g13
I01
stp1711
Rp1712
sbg703
g1685
tp1713
Rp1714
(dp1715
bg2
(g1564
g3
(S'assemble_pore_sequential_Bak_2_kf'
p1716
tp1717
Rp1718
(dp1719
g8
g9
(g10
g11
(dp1720
g13
I01
stp1721
Rp1722
sbg1573
(g703
g1541
tp1723
Rp1724
(dp1725
btp1726
Rp1727
(dp1728
bg881
g2
(g3
(S'assemble_pore_sequential_Bak_4_kr'
p1729
tp1730
Rp1731
(dp1732
g8
g9
(g10
g11
(dp1733
g13
I01
stp1734
Rp1735
sbg919
tp1736
Rp1737
(dp1738
bg692
g2
(g30
g696
g662
g703
tp1739
Rp1740
(dp1741
btp1742
Rp1743
(dp1744
bag1
(g2
(g30
g1089
g1096
tp1745
Rp1746
(dp1747
bg2
(g30
g1582
g1096
tp1748
Rp1749
(dp1750
bg2
(g1076
g625
g740
tp1751
Rp1752
(dp1753
btp1754
Rp1755
(dp1756
bag1
(g2
(g30
g679
g686
tp1757
Rp1758
(dp1759
bg2
(g30
g1668
g686
tp1760
Rp1761
(dp1762
bg2
(g696
g662
g703
tp1763
Rp1764
(dp1765
btp1766
Rp1767
(dp1768
bag1
(g2
(g733
g723
g740
tp1769
Rp1770
(dp1771
bg2
(g30
g767
g774
tp1772
Rp1773
(dp1774
btp1775
Rp1776
(dp1777
bag1
(g2
(g1172
g794
g740
tp1778
Rp1779
(dp1780
bg2
(g30
g1155
g1162
tp1781
Rp1782
(dp1783
btp1784
Rp1785
(dp1786
bag1
(g2
(g1129
g794
g703
tp1787
Rp1788
(dp1789
bg2
(g30
g1112
g1119
tp1790
Rp1791
(dp1792
btp1793
Rp1794
(dp1795
bag1
(g2
(g30
g868
g875
tp1796
Rp1797
(dp1798
bg2
(g824
g831
g703
tp1799
Rp1800
(dp1801
btp1802
Rp1803
(dp1804
bag1
(g1611
g2
(g30
g1625
g740
g1552
tp1805
Rp1806
(dp1807
bg2
(g30
g1545
g1552
tp1808
Rp1809
(dp1810
bg2
(g1568
g1575
tp1811
Rp1812
(dp1813
btp1814
Rp1815
(dp1816
bag1
(g2
(g30
g1648
g703
g1655
tp1817
Rp1818
(dp1819
bg1691
g2
(g30
g1698
g1655
tp1820
Rp1821
(dp1822
bg2
(g1718
g1724
tp1823
Rp1824
(dp1825
btp1826
Rp1827
(dp1828
bag1
(g2
(g1625
g740
g1552
tp1829
Rp1830
(dp1831
bg2
(g30
g1598
g1605
tp1832
Rp1833
(dp1834
bg2
(g30
g1615
g740
g1605
tp1835
Rp1836
(dp1837
bg1641
tp1838
Rp1839
(dp1840
bag1
(g2
(g30
g1708
g703
g1685
tp1841
Rp1842
(dp1843
bg2
(g1648
g703
g1655
tp1844
Rp1845
(dp1846
bg2
(g30
g1678
g1685
tp1847
Rp1848
(dp1849
bg1737
tp1850
Rp1851
(dp1852
bag1
(g2
(g30
g888
g895
g902
tp1853
Rp1854
(dp1855
bg2
(g3
(S'pore_transport_dissociate_BaxA_4_CytoCC_kc'
p1856
tp1857
Rp1858
(dp1859
g8
g9
(g10
g11
(dp1860
g13
I01
stp1861
Rp1862
sbg936
tp1863
Rp1864
(dp1865
bg2
(g1615
g740
g1605
tp1866
Rp1867
(dp1868
bg2
(g30
g1635
g902
tp1869
Rp1870
(dp1871
bg1013
g2
(g3
(S'pore_transport_dissociate_BaxA_4_SmacC_kc'
p1872
tp1873
Rp1874
(dp1875
g8
g9
(g10
g11
(dp1876
g13
I01
stp1877
Rp1878
sbg1007
tp1879
Rp1880
(dp1881
bg942
g2
(g30
g1017
g973
g902
tp1882
Rp1883
(dp1884
btp1885
Rp1886
(dp1887
bag1
(g2
(g1708
g703
g1685
tp1888
Rp1889
(dp1890
bg2
(g30
g1731
g919
tp1891
Rp1892
(dp1893
bg2
(g30
g966
g973
g919
tp1894
Rp1895
(dp1896
bg2
(g3
(S'pore_transport_dissociate_BakA_4_CytoCC_kc'
p1897
tp1898
Rp1899
(dp1900
g8
g9
(g10
g11
(dp1901
g13
I01
stp1902
Rp1903
sbg953
tp1904
Rp1905
(dp1906
bg2
(g3
(S'pore_transport_dissociate_BakA_4_SmacC_kc'
p1907
tp1908
Rp1909
(dp1910
g8
g9
(g10
g11
(dp1911
g13
I01
stp1912
Rp1913
sbg990
tp1914
Rp1915
(dp1916
bg2
(g30
g912
g895
g919
tp1917
Rp1918
(dp1919
bg996
g959
tp1920
Rp1921
(dp1922
bag1
(g2
(g30
g929
g936
tp1923
Rp1924
(dp1925
bg2
(g888
g895
g902
tp1926
Rp1927
(dp1928
bg2
(g30
g1858
g936
tp1929
Rp1930
(dp1931
btp1932
Rp1933
(dp1934
bag1
(g2
(g1017
g973
g902
tp1935
Rp1936
(dp1937
bg2
(g30
g1000
g1007
tp1938
Rp1939
(dp1940
bg2
(g30
g1874
g1007
tp1941
Rp1942
(dp1943
btp1944
Rp1945
(dp1946
bag1
(g2
(g912
g895
g919
tp1947
Rp1948
(dp1949
bg2
(g30
g1899
g953
tp1950
Rp1951
(dp1952
bg2
(g30
g946
g953
tp1953
Rp1954
(dp1955
btp1956
Rp1957
(dp1958
bag1
(g2
(g966
g973
g919
tp1959
Rp1960
(dp1961
bg2
(g30
g1909
g990
tp1962
Rp1963
(dp1964
bg2
(g30
g983
g990
tp1965
Rp1966
(dp1967
btp1968
Rp1969
(dp1970
bag1
(g2
(g3
(S'equilibrate_CytoCC_to_CytoCA_kr'
p1971
tp1972
Rp1973
(dp1974
g8
g9
(g10
g11
(dp1975
g13
I01
stp1976
Rp1977
sbg251
tp1978
Rp1979
(dp1980
bg1864
g1905
g2
(g30
g3
(S'equilibrate_CytoCC_to_CytoCA_kf'
p1981
tp1982
Rp1983
(dp1984
g8
g9
(g10
g11
(dp1985
g13
I01
stp1986
Rp1987
sbg3
(S's64'
p1988
tp1989
Rp1990
(dp1991
g8
g9
(g10
g11
(dp1992
g21
Nsg22
Nsg13
I01
sg23
Nstp1993
Rp1994
sbtp1995
Rp1996
(dp1997
btp1998
Rp1999
(dp2000
bag1
(g2
(g30
g3
(S'equilibrate_SmacC_to_SmacA_kf'
p2001
tp2002
Rp2003
(dp2004
g8
g9
(g10
g11
(dp2005
g13
I01
stp2006
Rp2007
sbg3
(S's65'
p2008
tp2009
Rp2010
(dp2011
g8
g9
(g10
g11
(dp2012
g21
Nsg22
Nsg13
I01
sg23
Nstp2013
Rp2014
sbtp2015
Rp2016
(dp2017
bg1915
g2
(g3
(S'equilibrate_SmacC_to_SmacA_kr'
p2018
tp2019
Rp2020
(dp2021
g8
g9
(g10
g11
(dp2022
g13
I01
stp2023
Rp2024
sbg477
tp2025
Rp2026
(dp2027
bg1880
tp2028
Rp2029
(dp2030
bag1
(g2
(g2003
g2010
tp2031
Rp2032
(dp2033
bg2
(g30
g470
g460
g477
tp2034
Rp2035
(dp2036
bg2
(g30
g2020
g477
tp2037
Rp2038
(dp2039
bg517
tp2040
Rp2041
(dp2042
bag1
(g233
g2
(g30
g1973
g251
tp2043
Rp2044
(dp2045
bg2
(g1983
g1990
tp2046
Rp2047
(dp2048
bg2
(g30
g237
g244
g251
tp2049
Rp2050
(dp2051
bg2
(g3
(S'catalyze_CytoCAApafI_to_CytoCA_ApafA_kc'
p2052
tp2053
Rp2054
(dp2055
g8
g9
(g10
g11
(dp2056
g13
I01
stp2057
Rp2058
sbg227
tp2059
Rp2060
(dp2061
btp2062
Rp2063
(dp2064
bag1
(g2
(g30
g2054
g227
tp2065
Rp2066
(dp2067
bg2
(g237
g244
g251
tp2068
Rp2069
(dp2070
bg2
(g30
g220
g227
tp2071
Rp2072
(dp2073
btp2074
Rp2075
(dp2076
bag1
(g2
(g30
g504
g511
tp2077
Rp2078
(dp2079
bg2
(g470
g460
g477
tp2080
Rp2081
(dp2082
btp2083
Rp2084
(dp2085
bag1
(g2
(g30
g379
g386
g393
tp2086
Rp2087
(dp2088
bg409
g2060
tp2089
Rp2090
(dp2091
bag1
(g2
(g30
g403
g295
tp2092
Rp2093
(dp2094
bg500
g2
(g30
g521
g460
g295
tp2095
Rp2096
(dp2097
bg2
(g30
g281
g288
g295
tp2098
Rp2099
(dp2100
bg1382
g328
g2
(g379
g386
g393
tp2101
Rp2102
(dp2103
btp2104
Rp2105
(dp2106
bag1
(g2
(g281
g288
g295
tp2107
Rp2108
(dp2109
bg2
(g30
g1376
g322
tp2110
Rp2111
(dp2112
bg2
(g30
g315
g322
tp2113
Rp2114
(dp2115
btp2116
Rp2117
(dp2118
bag1
(g2
(g30
g487
g494
tp2119
Rp2120
(dp2121
bg2
(g521
g460
g295
tp2122
Rp2123
(dp2124
btp2125
Rp2126
(dp2127
ba.