(lp0
(dp1
S'reactants'
p2
(I0
I1
tp3
sS'rule'
p4
S'bind_L_R_to_LR'
p5
sS'rate'
p6
csympy.core.add
Add
p7
(csympy.core.mul
Mul
p8
(csympy.core.symbol
Symbol
p9
(S'bind_L_R_to_LR_kf'
p10
tp11
Rp12
(dp13
S'_assumptions'
p14
ccopy_reg
_reconstructor
p15
(csympy.core.assumptions
StdFactKB
p16
c__builtin__
dict
p17
(dp18
S'commutative'
p19
I01
stp20
Rp21
sbg9
(S's0'
p22
tp23
Rp24
(dp25
g14
g15
(g16
g17
(dp26
g19
I01
stp27
Rp28
sbg9
(S's1'
p29
tp30
Rp31
(dp32
g14
g15
(g16
g17
(dp33
g19
I01
stp34
Rp35
sbtp36
Rp37
(dp38
bg8
(csympy.core.numbers
NegativeOne
p39
(tRp40
(dp41
bg9
(S'bind_L_R_to_LR_kr'
p42
tp43
Rp44
(dp45
g14
g15
(g16
g17
(dp46
g19
I01
stp47
Rp48
sbg9
(S's21'
p49
tp50
Rp51
(dp52
g14
g15
(g16
g17
(dp53
S'positive'
p54
NsS'zero'
p55
Nsg19
I01
sS'negative'
p56
Nstp57
Rp58
sbtp59
Rp60
(dp61
btp62
Rp63
(dp64
bsS'reversible'
p65
I01
sS'products'
p66
(I21
tp67
sa(dp68
g2
(I13
tp69
sg4
S'equilibrate_BaxC_to_BaxM'
p70
sg6
g7
(g8
(g9
(S'equilibrate_BaxC_to_BaxM_kf'
p71
tp72
Rp73
(dp74
g14
g15
(g16
g17
(dp75
g19
I01
stp76
Rp77
sbg9
(S's13'
p78
tp79
Rp80
(dp81
g14
g15
(g16
g17
(dp82
g54
Nsg55
Nsg19
I01
sg56
Nstp83
Rp84
sbtp85
Rp86
(dp87
bg8
(g40
g9
(S'equilibrate_BaxC_to_BaxM_kr'
p88
tp89
Rp90
(dp91
g14
g15
(g16
g17
(dp92
g19
I01
stp93
Rp94
sbg9
(S's22'
p95
tp96
Rp97
(dp98
g14
g15
(g16
g17
(dp99
g54
Nsg55
Nsg19
I01
sg56
Nstp100
Rp101
sbtp102
Rp103
(dp104
btp105
Rp106
(dp107
bsg65
I01
sg66
(I22
tp108
sa(dp109
g2
(I16
tp110
sg4
S'equilibrate_BclxLC_to_BclxLM'
p111
sg6
g7
(g8
(g40
g9
(S'equilibrate_BclxLC_to_BclxLM_kr'
p112
tp113
Rp114
(dp115
g14
g15
(g16
g17
(dp116
g19
I01
stp117
Rp118
sbg9
(S's23'
p119
tp120
Rp121
(dp122
g14
g15
(g16
g17
(dp123
g54
Nsg55
Nsg19
I01
sg56
Nstp124
Rp125
sbtp126
Rp127
(dp128
bg8
(g9
(S'equilibrate_BclxLC_to_BclxLM_kf'
p129
tp130
Rp131
(dp132
g14
g15
(g16
g17
(dp133
g19
I01
stp134
Rp135
sbg9
(S's16'
p136
tp137
Rp138
(dp139
g14
g15
(g16
g17
(dp140
g54
Nsg55
Nsg19
I01
sg56
Nstp141
Rp142
sbtp143
Rp144
(dp145
btp146
Rp147
(dp148
bsg65
I01
sg66
(I23
tp149
sa(dp150
g2
(I21
tp151
sg4
S'convert_LR_to_DISC'
p152
sg6
g8
(g9
(S'convert_LR_to_DISC_kc'
p153
tp154
Rp155
(dp156
g14
g15
(g16
g17
(dp157
g19
I01
stp158
Rp159
sbg51
tp160
Rp161
(dp162
bsg65
I00
sg66
(I24
tp163
sa(dp164
g2
(I3
I24
tp165
sg4
S'bind_DISC_C8pro_to_DISCC8pro'
p166
sg6
g7
(g8
(g40
g9
(S'bind_DISC_C8pro_to_DISCC8pro_kr'
p167
tp168
Rp169
(dp170
g14
g15
(g16
g17
(dp171
g19
I01
stp172
Rp173
sbg9
(S's25'
p174
tp175
Rp176
(dp177
g14
g15
(g16
g17
(dp178
g54
Nsg55
Nsg19
I01
sg56
Nstp179
Rp180
sbtp181
Rp182
(dp183
bg8
(g9
(S'bind_DISC_C8pro_to_DISCC8pro_kf'
p184
tp185
Rp186
(dp187
g14
g15
(g16
g17
(dp188
g19
I01
stp189
Rp190
sbg9
(S's24'
p191
tp192
Rp193
(dp194
g14
g15
(g16
g17
(dp195
g19
I01
stp196
Rp197
sbg9
(S's3'
p198
tp199
Rp200
(dp201
g14
g15
(g16
g17
(dp202
g19
I01
stp203
Rp204
sbtp205
Rp206
(dp207
btp208
Rp209
(dp210
bsg65
I01
sg66
(I25
tp211
sa(dp212
g2
(I2
I24
tp213
sg4
S'bind_DISC_flip'
p214
sg6
g7
(g8
(g40
g9
(S'bind_DISC_flip_kr'
p215
tp216
Rp217
(dp218
g14
g15
(g16
g17
(dp219
g19
I01
stp220
Rp221
sbg9
(S's26'
p222
tp223
Rp224
(dp225
g14
g15
(g16
g17
(dp226
g54
Nsg55
Nsg19
I01
sg56
Nstp227
Rp228
sbtp229
Rp230
(dp231
bg8
(g9
(S'bind_DISC_flip_kf'
p232
tp233
Rp234
(dp235
g14
g15
(g16
g17
(dp236
g19
I01
stp237
Rp238
sbg9
(S's2'
p239
tp240
Rp241
(dp242
g14
g15
(g16
g17
(dp243
g19
I01
stp244
Rp245
sbg193
tp246
Rp247
(dp248
btp249
Rp250
(dp251
bsg65
I01
sg66
(I26
tp252
sa(dp253
g2
(I25
tp254
sg4
S'catalyze_DISCC8pro_to_DISC_C8A'
p255
sg6
g8
(g9
(S'catalyze_DISCC8pro_to_DISC_C8A_kc'
p256
tp257
Rp258
(dp259
g14
g15
(g16
g17
(dp260
g19
I01
stp261
Rp262
sbg176
tp263
Rp264
(dp265
bsg65
I00
sg66
(I24
I27
tp266
sa(dp267
g2
(I11
I27
tp268
sg4
S'bind_C8A_BidU_to_C8ABidU'
p269
sg6
g7
(g8
(g40
g9
(S'bind_C8A_BidU_to_C8ABidU_kr'
p270
tp271
Rp272
(dp273
g14
g15
(g16
g17
(dp274
g19
I01
stp275
Rp276
sbg9
(S's28'
p277
tp278
Rp279
(dp280
g14
g15
(g16
g17
(dp281
g54
Nsg55
Nsg19
I01
sg56
Nstp282
Rp283
sbtp284
Rp285
(dp286
bg8
(g9
(S'bind_C8A_BidU_to_C8ABidU_kf'
p287
tp288
Rp289
(dp290
g14
g15
(g16
g17
(dp291
g19
I01
stp292
Rp293
sbg9
(S's11'
p294
tp295
Rp296
(dp297
g14
g15
(g16
g17
(dp298
g19
I01
stp299
Rp300
sbg9
(S's27'
p301
tp302
Rp303
(dp304
g14
g15
(g16
g17
(dp305
g19
I01
stp306
Rp307
sbtp308
Rp309
(dp310
btp311
Rp312
(dp313
bsg65
I01
sg66
(I28
tp314
sa(dp315
g2
(I4
I27
tp316
sg4
S'bind_BAR_C8A'
p317
sg6
g7
(g8
(g40
g9
(S'bind_BAR_C8A_kr'
p318
tp319
Rp320
(dp321
g14
g15
(g16
g17
(dp322
g19
I01
stp323
Rp324
sbg9
(S's29'
p325
tp326
Rp327
(dp328
g14
g15
(g16
g17
(dp329
g54
Nsg55
Nsg19
I01
sg56
Nstp330
Rp331
sbtp332
Rp333
(dp334
bg8
(g9
(S'bind_BAR_C8A_kf'
p335
tp336
Rp337
(dp338
g14
g15
(g16
g17
(dp339
g19
I01
stp340
Rp341
sbg303
g9
(S's4'
p342
tp343
Rp344
(dp345
g14
g15
(g16
g17
(dp346
g19
I01
stp347
Rp348
sbtp349
Rp350
(dp351
btp352
Rp353
(dp354
bsg65
I01
sg66
(I29
tp355
sa(dp356
g2
(I6
I27
tp357
sg4
S'bind_C8A_C3pro_to_C8AC3pro'
p358
sg6
g7
(g8
(g9
(S'bind_C8A_C3pro_to_C8AC3pro_kf'
p359
tp360
Rp361
(dp362
g14
g15
(g16
g17
(dp363
g19
I01
stp364
Rp365
sbg303
g9
(S's6'
p366
tp367
Rp368
(dp369
g14
g15
(g16
g17
(dp370
g19
I01
stp371
Rp372
sbtp373
Rp374
(dp375
bg8
(g40
g9
(S'bind_C8A_C3pro_to_C8AC3pro_kr'
p376
tp377
Rp378
(dp379
g14
g15
(g16
g17
(dp380
g19
I01
stp381
Rp382
sbg9
(S's30'
p383
tp384
Rp385
(dp386
g14
g15
(g16
g17
(dp387
g54
Nsg55
Nsg19
I01
sg56
Nstp388
Rp389
sbtp390
Rp391
(dp392
btp393
Rp394
(dp395
bsg65
I01
sg66
(I30
tp396
sa(dp397
g2
(I28
tp398
sg4
S'catalyze_C8ABidU_to_C8A_BidT'
p399
sg6
g8
(g9
(S'catalyze_C8ABidU_to_C8A_BidT_kc'
p400
tp401
Rp402
(dp403
g14
g15
(g16
g17
(dp404
g19
I01
stp405
Rp406
sbg279
tp407
Rp408
(dp409
bsg65
I00
sg66
(I27
I31
tp410
sa(dp411
g2
(I30
tp412
sg4
S'catalyze_C8AC3pro_to_C8A_C3A'
p413
sg6
g8
(g9
(S'catalyze_C8AC3pro_to_C8A_C3A_kc'
p414
tp415
Rp416
(dp417
g14
g15
(g16
g17
(dp418
g19
I01
stp419
Rp420
sbg385
tp421
Rp422
(dp423
bsg65
I00
sg66
(I27
I32
tp424
sa(dp425
g2
(I10
I32
tp426
sg4
S'bind_XIAP_C3A_to_XIAPC3A'
p427
sg6
g7
(g8
(g40
g9
(S'bind_XIAP_C3A_to_XIAPC3A_kr'
p428
tp429
Rp430
(dp431
g14
g15
(g16
g17
(dp432
g19
I01
stp433
Rp434
sbg9
(S's33'
p435
tp436
Rp437
(dp438
g14
g15
(g16
g17
(dp439
g54
Nsg55
Nsg19
I01
sg56
Nstp440
Rp441
sbtp442
Rp443
(dp444
bg8
(g9
(S'bind_XIAP_C3A_to_XIAPC3A_kf'
p445
tp446
Rp447
(dp448
g14
g15
(g16
g17
(dp449
g19
I01
stp450
Rp451
sbg9
(S's10'
p452
tp453
Rp454
(dp455
g14
g15
(g16
g17
(dp456
g19
I01
stp457
Rp458
sbg9
(S's32'
p459
tp460
Rp461
(dp462
g14
g15
(g16
g17
(dp463
g19
I01
stp464
Rp465
sbtp466
Rp467
(dp468
btp469
Rp470
(dp471
bsg65
I01
sg66
(I33
tp472
sa(dp473
g2
(I9
I32
tp474
sg4
S'bind_C3A_PARPU_to_C3APARPU'
p475
sg6
g7
(g8
(g9
(S'bind_C3A_PARPU_to_C3APARPU_kf'
p476
tp477
Rp478
(dp479
g14
g15
(g16
g17
(dp480
g19
I01
stp481
Rp482
sbg461
g9
(S's9'
p483
tp484
Rp485
(dp486
g14
g15
(g16
g17
(dp487
g19
I01
stp488
Rp489
sbtp490
Rp491
(dp492
bg8
(g40
g9
(S'bind_C3A_PARPU_to_C3APARPU_kr'
p493
tp494
Rp495
(dp496
g14
g15
(g16
g17
(dp497
g19
I01
stp498
Rp499
sbg9
(S's34'
p500
tp501
Rp502
(dp503
g14
g15
(g16
g17
(dp504
g54
Nsg55
Nsg19
I01
sg56
Nstp505
Rp506
sbtp507
Rp508
(dp509
btp510
Rp511
(dp512
bsg65
I01
sg66
(I34
tp513
sa(dp514
g2
(I7
I32
tp515
sg4
S'bind_C3A_C6pro_to_C3AC6pro'
p516
sg6
g7
(g8
(g9
(S'bind_C3A_C6pro_to_C3AC6pro_kf'
p517
tp518
Rp519
(dp520
g14
g15
(g16
g17
(dp521
g19
I01
stp522
Rp523
sbg461
g9
(S's7'
p524
tp525
Rp526
(dp527
g14
g15
(g16
g17
(dp528
g19
I01
stp529
Rp530
sbtp531
Rp532
(dp533
bg8
(g40
g9
(S'bind_C3A_C6pro_to_C3AC6pro_kr'
p534
tp535
Rp536
(dp537
g14
g15
(g16
g17
(dp538
g19
I01
stp539
Rp540
sbg9
(S's35'
p541
tp542
Rp543
(dp544
g14
g15
(g16
g17
(dp545
g54
Nsg55
Nsg19
I01
sg56
Nstp546
Rp547
sbtp548
Rp549
(dp550
btp551
Rp552
(dp553
bsg65
I01
sg66
(I35
tp554
sa(dp555
g2
(I31
tp556
sg4
S'equilibrate_BidT_to_BidM'
p557
sg6
g7
(g8
(g40
g9
(S'equilibrate_BidT_to_BidM_kr'
p558
tp559
Rp560
(dp561
g14
g15
(g16
g17
(dp562
g19
I01
stp563
Rp564
sbg9
(S's36'
p565
tp566
Rp567
(dp568
g14
g15
(g16
g17
(dp569
g54
Nsg55
Nsg19
I01
sg56
Nstp570
Rp571
sbtp572
Rp573
(dp574
bg8
(g9
(S'equilibrate_BidT_to_BidM_kf'
p575
tp576
Rp577
(dp578
g14
g15
(g16
g17
(dp579
g19
I01
stp580
Rp581
sbg9
(S's31'
p582
tp583
Rp584
(dp585
g14
g15
(g16
g17
(dp586
g54
Nsg55
Nsg19
I01
sg56
Nstp587
Rp588
sbtp589
Rp590
(dp591
btp592
Rp593
(dp594
bsg65
I01
sg66
(I36
tp595
sa(dp596
g2
(I33
tp597
sg4
S'catalyze_XIAPC3A_to_XIAP_C3ub'
p598
sg6
g8
(g9
(S'catalyze_XIAPC3A_to_XIAP_C3ub_kc'
p599
tp600
Rp601
(dp602
g14
g15
(g16
g17
(dp603
g19
I01
stp604
Rp605
sbg437
tp606
Rp607
(dp608
bsg65
I00
sg66
(I10
I37
tp609
sa(dp610
g2
(I34
tp611
sg4
S'catalyze_C3APARPU_to_C3A_PARPC'
p612
sg6
g8
(g9
(S'catalyze_C3APARPU_to_C3A_PARPC_kc'
p613
tp614
Rp615
(dp616
g14
g15
(g16
g17
(dp617
g19
I01
stp618
Rp619
sbg502
tp620
Rp621
(dp622
bsg65
I00
sg66
(I32
I38
tp623
sa(dp624
g2
(I35
tp625
sg4
S'catalyze_C3AC6pro_to_C3A_C6A'
p626
sg6
g8
(g9
(S'catalyze_C3AC6pro_to_C3A_C6A_kc'
p627
tp628
Rp629
(dp630
g14
g15
(g16
g17
(dp631
g19
I01
stp632
Rp633
sbg543
tp634
Rp635
(dp636
bsg65
I00
sg66
(I32
I39
tp637
sa(dp638
g2
(I22
I36
tp639
sg4
S'bind_BidM_BaxM_to_BidMBaxM'
p640
sg6
g7
(g8
(g40
g9
(S'bind_BidM_BaxM_to_BidMBaxM_kr'
p641
tp642
Rp643
(dp644
g14
g15
(g16
g17
(dp645
g19
I01
stp646
Rp647
sbg9
(S's40'
p648
tp649
Rp650
(dp651
g14
g15
(g16
g17
(dp652
g54
Nsg55
Nsg19
I01
sg56
Nstp653
Rp654
sbtp655
Rp656
(dp657
bg8
(g9
(S'bind_BidM_BaxM_to_BidMBaxM_kf'
p658
tp659
Rp660
(dp661
g14
g15
(g16
g17
(dp662
g19
I01
stp663
Rp664
sbg97
g567
tp665
Rp666
(dp667
btp668
Rp669
(dp670
bsg65
I01
sg66
(I40
tp671
sa(dp672
g2
(I14
I36
tp673
sg4
S'bind_BidM_BakM_to_BidMBakM'
p674
sg6
g7
(g8
(g40
g9
(S'bind_BidM_BakM_to_BidMBakM_kr'
p675
tp676
Rp677
(dp678
g14
g15
(g16
g17
(dp679
g19
I01
stp680
Rp681
sbg9
(S's41'
p682
tp683
Rp684
(dp685
g14
g15
(g16
g17
(dp686
g54
Nsg55
Nsg19
I01
sg56
Nstp687
Rp688
sbtp689
Rp690
(dp691
bg8
(g9
(S'bind_BidM_BakM_to_BidMBakM_kf'
p692
tp693
Rp694
(dp695
g14
g15
(g16
g17
(dp696
g19
I01
stp697
Rp698
sbg9
(S's14'
p699
tp700
Rp701
(dp702
g14
g15
(g16
g17
(dp703
g19
I01
stp704
Rp705
sbg567
tp706
Rp707
(dp708
btp709
Rp710
(dp711
bsg65
I01
sg66
(I41
tp712
sa(dp713
g2
(I15
I36
tp714
sg4
S'bind_BidM_Bcl2'
p715
sg6
g7
(g8
(g40
g9
(S'bind_BidM_Bcl2_kr'
p716
tp717
Rp718
(dp719
g14
g15
(g16
g17
(dp720
g19
I01
stp721
Rp722
sbg9
(S's42'
p723
tp724
Rp725
(dp726
g14
g15
(g16
g17
(dp727
g54
Nsg55
Nsg19
I01
sg56
Nstp728
Rp729
sbtp730
Rp731
(dp732
bg8
(g9
(S'bind_BidM_Bcl2_kf'
p733
tp734
Rp735
(dp736
g14
g15
(g16
g17
(dp737
g19
I01
stp738
Rp739
sbg9
(S's15'
p740
tp741
Rp742
(dp743
g14
g15
(g16
g17
(dp744
g19
I01
stp745
Rp746
sbg567
tp747
Rp748
(dp749
btp750
Rp751
(dp752
bsg65
I01
sg66
(I42
tp753
sa(dp754
g2
(I23
I36
tp755
sg4
S'bind_BidM_BclxLM'
p756
sg6
g7
(g8
(g40
g9
(S'bind_BidM_BclxLM_kr'
p757
tp758
Rp759
(dp760
g14
g15
(g16
g17
(dp761
g19
I01
stp762
Rp763
sbg9
(S's43'
p764
tp765
Rp766
(dp767
g14
g15
(g16
g17
(dp768
g54
Nsg55
Nsg19
I01
sg56
Nstp769
Rp770
sbtp771
Rp772
(dp773
bg8
(g9
(S'bind_BidM_BclxLM_kf'
p774
tp775
Rp776
(dp777
g14
g15
(g16
g17
(dp778
g19
I01
stp779
Rp780
sbg121
g567
tp781
Rp782
(dp783
btp784
Rp785
(dp786
bsg65
I01
sg66
(I43
tp787
sa(dp788
g2
(I17
I36
tp789
sg4
S'bind_BidM_Mcl1M'
p790
sg6
g7
(g8
(g40
g9
(S'bind_BidM_Mcl1M_kr'
p791
tp792
Rp793
(dp794
g14
g15
(g16
g17
(dp795
g19
I01
stp796
Rp797
sbg9
(S's44'
p798
tp799
Rp800
(dp801
g14
g15
(g16
g17
(dp802
g54
Nsg55
Nsg19
I01
sg56
Nstp803
Rp804
sbtp805
Rp806
(dp807
bg8
(g9
(S'bind_BidM_Mcl1M_kf'
p808
tp809
Rp810
(dp811
g14
g15
(g16
g17
(dp812
g19
I01
stp813
Rp814
sbg9
(S's17'
p815
tp816
Rp817
(dp818
g14
g15
(g16
g17
(dp819
g19
I01
stp820
Rp821
sbg567
tp822
Rp823
(dp824
btp825
Rp826
(dp827
bsg65
I01
sg66
(I44
tp828
sa(dp829
g2
(I3
I39
tp830
sg4
S'bind_C6A_C8pro_to_C6AC8pro'
p831
sg6
g7
(g8
(g9
(S'bind_C6A_C8pro_to_C6AC8pro_kf'
p832
tp833
Rp834
(dp835
g14
g15
(g16
g17
(dp836
g19
I01
stp837
Rp838
sbg200
g9
(S's39'
p839
tp840
Rp841
(dp842
g14
g15
(g16
g17
(dp843
g19
I01
stp844
Rp845
sbtp846
Rp847
(dp848
bg8
(g40
g9
(S'bind_C6A_C8pro_to_C6AC8pro_kr'
p849
tp850
Rp851
(dp852
g14
g15
(g16
g17
(dp853
g19
I01
stp854
Rp855
sbg9
(S's45'
p856
tp857
Rp858
(dp859
g14
g15
(g16
g17
(dp860
g54
Nsg55
Nsg19
I01
sg56
Nstp861
Rp862
sbtp863
Rp864
(dp865
btp866
Rp867
(dp868
bsg65
I01
sg66
(I45
tp869
sa(dp870
g2
(I40
tp871
sg4
S'catalyze_BidMBaxM_to_BidM_BaxA'
p872
sg6
g8
(g9
(S'catalyze_BidMBaxM_to_BidM_BaxA_kc'
p873
tp874
Rp875
(dp876
g14
g15
(g16
g17
(dp877
g19
I01
stp878
Rp879
sbg650
tp880
Rp881
(dp882
bsg65
I00
sg66
(I36
I46
tp883
sa(dp884
g2
(I41
tp885
sg4
S'catalyze_BidMBakM_to_BidM_BakA'
p886
sg6
g8
(g9
(S'catalyze_BidMBakM_to_BidM_BakA_kc'
p887
tp888
Rp889
(dp890
g14
g15
(g16
g17
(dp891
g19
I01
stp892
Rp893
sbg684
tp894
Rp895
(dp896
bsg65
I00
sg66
(I36
I47
tp897
sa(dp898
g2
(I45
tp899
sg4
S'catalyze_C6AC8pro_to_C6A_C8A'
p900
sg6
g8
(g9
(S'catalyze_C6AC8pro_to_C6A_C8A_kc'
p901
tp902
Rp903
(dp904
g14
g15
(g16
g17
(dp905
g19
I01
stp906
Rp907
sbg858
tp908
Rp909
(dp910
bsg65
I00
sg66
(I27
I39
tp911
sa(dp912
g2
(I22
I46
tp913
sg4
S'bind_BaxA_BaxM_to_BaxABaxM'
p914
sg6
g7
(g8
(g40
g9
(S'bind_BaxA_BaxM_to_BaxABaxM_kr'
p915
tp916
Rp917
(dp918
g14
g15
(g16
g17
(dp919
g19
I01
stp920
Rp921
sbg9
(S's48'
p922
tp923
Rp924
(dp925
g14
g15
(g16
g17
(dp926
g54
Nsg55
Nsg19
I01
sg56
Nstp927
Rp928
sbtp929
Rp930
(dp931
bg8
(g9
(S'bind_BaxA_BaxM_to_BaxABaxM_kf'
p932
tp933
Rp934
(dp935
g14
g15
(g16
g17
(dp936
g19
I01
stp937
Rp938
sbg97
g9
(S's46'
p939
tp940
Rp941
(dp942
g14
g15
(g16
g17
(dp943
g19
I01
stp944
Rp945
sbtp946
Rp947
(dp948
btp949
Rp950
(dp951
bsg65
I01
sg66
(I48
tp952
sa(dp953
g2
(I14
I47
tp954
sg4
S'bind_BakA_BakM_to_BakABakM'
p955
sg6
g7
(g8
(g40
g9
(S'bind_BakA_BakM_to_BakABakM_kr'
p956
tp957
Rp958
(dp959
g14
g15
(g16
g17
(dp960
g19
I01
stp961
Rp962
sbg9
(S's49'
p963
tp964
Rp965
(dp966
g14
g15
(g16
g17
(dp967
g54
Nsg55
Nsg19
I01
sg56
Nstp968
Rp969
sbtp970
Rp971
(dp972
bg8
(g9
(S'bind_BakA_BakM_to_BakABakM_kf'
p973
tp974
Rp975
(dp976
g14
g15
(g16
g17
(dp977
g19
I01
stp978
Rp979
sbg701
g9
(S's47'
p980
tp981
Rp982
(dp983
g14
g15
(g16
g17
(dp984
g19
I01
stp985
Rp986
sbtp987
Rp988
(dp989
btp990
Rp991
(dp992
bsg65
I01
sg66
(I49
tp993
sa(dp994
g2
(I15
I46
tp995
sg4
S'bind_BaxA_Bcl2'
p996
sg6
g7
(g8
(g9
(S'bind_BaxA_Bcl2_kf'
p997
tp998
Rp999
(dp1000
g14
g15
(g16
g17
(dp1001
g19
I01
stp1002
Rp1003
sbg742
g941
tp1004
Rp1005
(dp1006
bg8
(g40
g9
(S'bind_BaxA_Bcl2_kr'
p1007
tp1008
Rp1009
(dp1010
g14
g15
(g16
g17
(dp1011
g19
I01
stp1012
Rp1013
sbg9
(S's50'
p1014
tp1015
Rp1016
(dp1017
g14
g15
(g16
g17
(dp1018
g54
Nsg55
Nsg19
I01
sg56
Nstp1019
Rp1020
sbtp1021
Rp1022
(dp1023
btp1024
Rp1025
(dp1026
bsg65
I01
sg66
(I50
tp1027
sa(dp1028
g2
(I23
I46
tp1029
sg4
S'bind_BaxA_BclxLM'
p1030
sg6
g7
(g8
(g9
(S'bind_BaxA_BclxLM_kf'
p1031
tp1032
Rp1033
(dp1034
g14
g15
(g16
g17
(dp1035
g19
I01
stp1036
Rp1037
sbg121
g941
tp1038
Rp1039
(dp1040
bg8
(g40
g9
(S'bind_BaxA_BclxLM_kr'
p1041
tp1042
Rp1043
(dp1044
g14
g15
(g16
g17
(dp1045
g19
I01
stp1046
Rp1047
sbg9
(S's51'
p1048
tp1049
Rp1050
(dp1051
g14
g15
(g16
g17
(dp1052
g54
Nsg55
Nsg19
I01
sg56
Nstp1053
Rp1054
sbtp1055
Rp1056
(dp1057
btp1058
Rp1059
(dp1060
bsg65
I01
sg66
(I51
tp1061
sa(dp1062
g2
(I23
I47
tp1063
sg4
S'bind_BakA_BclxLM'
p1064
sg6
g7
(g8
(g9
(S'bind_BakA_BclxLM_kf'
p1065
tp1066
Rp1067
(dp1068
g14
g15
(g16
g17
(dp1069
g19
I01
stp1070
Rp1071
sbg121
g982
tp1072
Rp1073
(dp1074
bg8
(g40
g9
(S'bind_BakA_BclxLM_kr'
p1075
tp1076
Rp1077
(dp1078
g14
g15
(g16
g17
(dp1079
g19
I01
stp1080
Rp1081
sbg9
(S's52'
p1082
tp1083
Rp1084
(dp1085
g14
g15
(g16
g17
(dp1086
g54
Nsg55
Nsg19
I01
sg56
Nstp1087
Rp1088
sbtp1089
Rp1090
(dp1091
btp1092
Rp1093
(dp1094
bsg65
I01
sg66
(I52
tp1095
sa(dp1096
g2
(I17
I47
tp1097
sg4
S'bind_BakA_Mcl1'
p1098
sg6
g7
(g8
(g40
g9
(S'bind_BakA_Mcl1_kr'
p1099
tp1100
Rp1101
(dp1102
g14
g15
(g16
g17
(dp1103
g19
I01
stp1104
Rp1105
sbg9
(S's53'
p1106
tp1107
Rp1108
(dp1109
g14
g15
(g16
g17
(dp1110
g54
Nsg55
Nsg19
I01
sg56
Nstp1111
Rp1112
sbtp1113
Rp1114
(dp1115
bg8
(g9
(S'bind_BakA_Mcl1_kf'
p1116
tp1117
Rp1118
(dp1119
g14
g15
(g16
g17
(dp1120
g19
I01
stp1121
Rp1122
sbg817
g982
tp1123
Rp1124
(dp1125
btp1126
Rp1127
(dp1128
bsg65
I01
sg66
(I53
tp1129
sa(dp1130
g2
(I46
I46
tp1131
sg4
S'assemble_pore_sequential_Bax_2'
p1132
sg6
g7
(g8
(g40
g9
(S'assemble_pore_sequential_Bax_2_kr'
p1133
tp1134
Rp1135
(dp1136
g14
g15
(g16
g17
(dp1137
g19
I01
stp1138
Rp1139
sbg9
(S's54'
p1140
tp1141
Rp1142
(dp1143
g14
g15
(g16
g17
(dp1144
g54
Nsg55
Nsg19
I01
sg56
Nstp1145
Rp1146
sbtp1147
Rp1148
(dp1149
bg8
(g9
(S'assemble_pore_sequential_Bax_2_kf'
p1150
tp1151
Rp1152
(dp1153
g14
g15
(g16
g17
(dp1154
g19
I01
stp1155
Rp1156
sbcsympy.core.power
Pow
p1157
(g941
csympy.core.numbers
Integer
p1158
(I2
tp1159
Rp1160
(dp1161
btp1162
Rp1163
(dp1164
btp1165
Rp1166
(dp1167
btp1168
Rp1169
(dp1170
bsg65
I01
sg66
(I54
tp1171
sa(dp1172
g2
(I47
I47
tp1173
sg4
S'assemble_pore_sequential_Bak_2'
p1174
sg6
g7
(g8
(g40
g9
(S'assemble_pore_sequential_Bak_2_kr'
p1175
tp1176
Rp1177
(dp1178
g14
g15
(g16
g17
(dp1179
g19
I01
stp1180
Rp1181
sbg9
(S's55'
p1182
tp1183
Rp1184
(dp1185
g14
g15
(g16
g17
(dp1186
g54
Nsg55
Nsg19
I01
sg56
Nstp1187
Rp1188
sbtp1189
Rp1190
(dp1191
bg8
(g9
(S'assemble_pore_sequential_Bak_2_kf'
p1192
tp1193
Rp1194
(dp1195
g14
g15
(g16
g17
(dp1196
g19
I01
stp1197
Rp1198
sbg1157
(g982
g1160
tp1199
Rp1200
(dp1201
btp1202
Rp1203
(dp1204
btp1205
Rp1206
(dp1207
bsg65
I01
sg66
(I55
tp1208
sa(dp1209
g2
(I48
tp1210
sg4
S'catalyze_BaxABaxM_to_BaxA_BaxA'
p1211
sg6
g8
(g9
(S'catalyze_BaxABaxM_to_BaxA_BaxA_kc'
p1212
tp1213
Rp1214
(dp1215
g14
g15
(g16
g17
(dp1216
g19
I01
stp1217
Rp1218
sbg924
tp1219
Rp1220
(dp1221
bsg65
I00
sg66
(I46
I46
tp1222
sa(dp1223
g2
(I49
tp1224
sg4
S'catalyze_BakABakM_to_BakA_BakA'
p1225
sg6
g8
(g9
(S'catalyze_BakABakM_to_BakA_BakA_kc'
p1226
tp1227
Rp1228
(dp1229
g14
g15
(g16
g17
(dp1230
g19
I01
stp1231
Rp1232
sbg965
tp1233
Rp1234
(dp1235
bsg65
I00
sg66
(I47
I47
tp1236
sa(dp1237
g2
(I46
I54
tp1238
sg4
S'assemble_pore_sequential_Bax_3'
p1239
sg6
g7
(g8
(g9
(S'assemble_pore_sequential_Bax_3_kf'
p1240
tp1241
Rp1242
(dp1243
g14
g15
(g16
g17
(dp1244
g19
I01
stp1245
Rp1246
sbg941
g1142
tp1247
Rp1248
(dp1249
bg8
(g40
g9
(S'assemble_pore_sequential_Bax_3_kr'
p1250
tp1251
Rp1252
(dp1253
g14
g15
(g16
g17
(dp1254
g19
I01
stp1255
Rp1256
sbg9
(S's56'
p1257
tp1258
Rp1259
(dp1260
g14
g15
(g16
g17
(dp1261
g54
Nsg55
Nsg19
I01
sg56
Nstp1262
Rp1263
sbtp1264
Rp1265
(dp1266
btp1267
Rp1268
(dp1269
bsg65
I01
sg66
(I56
tp1270
sa(dp1271
g2
(I47
I55
tp1272
sg4
S'assemble_pore_sequential_Bak_3'
p1273
sg6
g7
(g8
(g9
(S'assemble_pore_sequential_Bak_3_kf'
p1274
tp1275
Rp1276
(dp1277
g14
g15
(g16
g17
(dp1278
g19
I01
stp1279
Rp1280
sbg982
g1184
tp1281
Rp1282
(dp1283
bg8
(g40
g9
(S'assemble_pore_sequential_Bak_3_kr'
p1284
tp1285
Rp1286
(dp1287
g14
g15
(g16
g17
(dp1288
g19
I01
stp1289
Rp1290
sbg9
(S's57'
p1291
tp1292
Rp1293
(dp1294
g14
g15
(g16
g17
(dp1295
g54
Nsg55
Nsg19
I01
sg56
Nstp1296
Rp1297
sbtp1298
Rp1299
(dp1300
btp1301
Rp1302
(dp1303
bsg65
I01
sg66
(I57
tp1304
sa(dp1305
g2
(I46
I56
tp1306
sg4
S'assemble_pore_sequential_Bax_4'
p1307
sg6
g7
(g8
(g9
(S'assemble_pore_sequential_Bax_4_kf'
p1308
tp1309
Rp1310
(dp1311
g14
g15
(g16
g17
(dp1312
g19
I01
stp1313
Rp1314
sbg941
g1259
tp1315
Rp1316
(dp1317
bg8
(g40
g9
(S'assemble_pore_sequential_Bax_4_kr'
p1318
tp1319
Rp1320
(dp1321
g14
g15
(g16
g17
(dp1322
g19
I01
stp1323
Rp1324
sbg9
(S's58'
p1325
tp1326
Rp1327
(dp1328
g14
g15
(g16
g17
(dp1329
g54
Nsg55
Nsg19
I01
sg56
Nstp1330
Rp1331
sbtp1332
Rp1333
(dp1334
btp1335
Rp1336
(dp1337
bsg65
I01
sg66
(I58
tp1338
sa(dp1339
g2
(I47
I57
tp1340
sg4
S'assemble_pore_sequential_Bak_4'
p1341
sg6
g7
(g8
(g9
(S'assemble_pore_sequential_Bak_4_kf'
p1342
tp1343
Rp1344
(dp1345
g14
g15
(g16
g17
(dp1346
g19
I01
stp1347
Rp1348
sbg982
g1293
tp1349
Rp1350
(dp1351
bg8
(g40
g9
(S'assemble_pore_sequential_Bak_4_kr'
p1352
tp1353
Rp1354
(dp1355
g14
g15
(g16
g17
(dp1356
g19
I01
stp1357
Rp1358
sbg9
(S's59'
p1359
tp1360
Rp1361
(dp1362
g14
g15
(g16
g17
(dp1363
g54
Nsg55
Nsg19
I01
sg56
Nstp1364
Rp1365
sbtp1366
Rp1367
(dp1368
btp1369
Rp1370
(dp1371
bsg65
I01
sg66
(I59
tp1372
sa(dp1373
g2
(I19
I58
tp1374
sg4
S'pore_transport_complex_BaxA_4_CytoCM'
p1375
sg6
g7
(g8
(g40
g9
(S'pore_transport_complex_BaxA_4_CytoCM_kr'
p1376
tp1377
Rp1378
(dp1379
g14
g15
(g16
g17
(dp1380
g19
I01
stp1381
Rp1382
sbg9
(S's60'
p1383
tp1384
Rp1385
(dp1386
g14
g15
(g16
g17
(dp1387
g54
Nsg55
Nsg19
I01
sg56
Nstp1388
Rp1389
sbtp1390
Rp1391
(dp1392
bg8
(g9
(S'pore_transport_complex_BaxA_4_CytoCM_kf'
p1393
tp1394
Rp1395
(dp1396
g14
g15
(g16
g17
(dp1397
g19
I01
stp1398
Rp1399
sbg9
(S's19'
p1400
tp1401
Rp1402
(dp1403
g14
g15
(g16
g17
(dp1404
g19
I01
stp1405
Rp1406
sbg1327
tp1407
Rp1408
(dp1409
btp1410
Rp1411
(dp1412
bsg65
I01
sg66
(I60
tp1413
sa(dp1414
g2
(I20
I58
tp1415
sg4
S'pore_transport_complex_BaxA_4_SmacM'
p1416
sg6
g7
(g8
(g9
(S'pore_transport_complex_BaxA_4_SmacM_kf'
p1417
tp1418
Rp1419
(dp1420
g14
g15
(g16
g17
(dp1421
g19
I01
stp1422
Rp1423
sbg9
(S's20'
p1424
tp1425
Rp1426
(dp1427
g14
g15
(g16
g17
(dp1428
g19
I01
stp1429
Rp1430
sbg1327
tp1431
Rp1432
(dp1433
bg8
(g40
g9
(S'pore_transport_complex_BaxA_4_SmacM_kr'
p1434
tp1435
Rp1436
(dp1437
g14
g15
(g16
g17
(dp1438
g19
I01
stp1439
Rp1440
sbg9
(S's61'
p1441
tp1442
Rp1443
(dp1444
g14
g15
(g16
g17
(dp1445
g54
Nsg55
Nsg19
I01
sg56
Nstp1446
Rp1447
sbtp1448
Rp1449
(dp1450
btp1451
Rp1452
(dp1453
bsg65
I01
sg66
(I61
tp1454
sa(dp1455
g2
(I19
I59
tp1456
sg4
S'pore_transport_complex_BakA_4_CytoCM'
p1457
sg6
g7
(g8
(g9
(S'pore_transport_complex_BakA_4_CytoCM_kf'
p1458
tp1459
Rp1460
(dp1461
g14
g15
(g16
g17
(dp1462
g19
I01
stp1463
Rp1464
sbg1402
g1361
tp1465
Rp1466
(dp1467
bg8
(g40
g9
(S'pore_transport_complex_BakA_4_CytoCM_kr'
p1468
tp1469
Rp1470
(dp1471
g14
g15
(g16
g17
(dp1472
g19
I01
stp1473
Rp1474
sbg9
(S's62'
p1475
tp1476
Rp1477
(dp1478
g14
g15
(g16
g17
(dp1479
g54
Nsg55
Nsg19
I01
sg56
Nstp1480
Rp1481
sbtp1482
Rp1483
(dp1484
btp1485
Rp1486
(dp1487
bsg65
I01
sg66
(I62
tp1488
sa(dp1489
g2
(I20
I59
tp1490
sg4
S'pore_transport_complex_BakA_4_SmacM'
p1491
sg6
g7
(g8
(g9
(S'pore_transport_complex_BakA_4_SmacM_kf'
p1492
tp1493
Rp1494
(dp1495
g14
g15
(g16
g17
(dp1496
g19
I01
stp1497
Rp1498
sbg1426
g1361
tp1499
Rp1500
(dp1501
bg8
(g40
g9
(S'pore_transport_complex_BakA_4_SmacM_kr'
p1502
tp1503
Rp1504
(dp1505
g14
g15
(g16
g17
(dp1506
g19
I01
stp1507
Rp1508
sbg9
(S's63'
p1509
tp1510
Rp1511
(dp1512
g14
g15
(g16
g17
(dp1513
g54
Nsg55
Nsg19
I01
sg56
Nstp1514
Rp1515
sbtp1516
Rp1517
(dp1518
btp1519
Rp1520
(dp1521
bsg65
I01
sg66
(I63
tp1522
sa(dp1523
g2
(I60
tp1524
sg4
S'pore_transport_dissociate_BaxA_4_CytoCC'
p1525
sg6
g8
(g9
(S'pore_transport_dissociate_BaxA_4_CytoCC_kc'
p1526
tp1527
Rp1528
(dp1529
g14
g15
(g16
g17
(dp1530
g19
I01
stp1531
Rp1532
sbg1385
tp1533
Rp1534
(dp1535
bsg65
I00
sg66
(I58
I64
tp1536
sa(dp1537
g2
(I61
tp1538
sg4
S'pore_transport_dissociate_BaxA_4_SmacC'
p1539
sg6
g8
(g9
(S'pore_transport_dissociate_BaxA_4_SmacC_kc'
p1540
tp1541
Rp1542
(dp1543
g14
g15
(g16
g17
(dp1544
g19
I01
stp1545
Rp1546
sbg1443
tp1547
Rp1548
(dp1549
bsg65
I00
sg66
(I58
I65
tp1550
sa(dp1551
g2
(I62
tp1552
sg4
S'pore_transport_dissociate_BakA_4_CytoCC'
p1553
sg6
g8
(g9
(S'pore_transport_dissociate_BakA_4_CytoCC_kc'
p1554
tp1555
Rp1556
(dp1557
g14
g15
(g16
g17
(dp1558
g19
I01
stp1559
Rp1560
sbg1477
tp1561
Rp1562
(dp1563
bsg65
I00
sg66
(I59
I64
tp1564
sa(dp1565
g2
(I63
tp1566
sg4
S'pore_transport_dissociate_BakA_4_SmacC'
p1567
sg6
g8
(g9
(S'pore_transport_dissociate_BakA_4_SmacC_kc'
p1568
tp1569
Rp1570
(dp1571
g14
g15
(g16
g17
(dp1572
g19
I01
stp1573
Rp1574
sbg1511
tp1575
Rp1576
(dp1577
bsg65
I00
sg66
(I59
I65
tp1578
sa(dp1579
g2
(I65
tp1580
sg4
S'equilibrate_SmacC_to_SmacA'
p1581
sg6
g7
(g8
(g9
(S'equilibrate_SmacC_to_SmacA_kf'
p1582
tp1583
Rp1584
(dp1585
g14
g15
(g16
g17
(dp1586
g19
I01
stp1587
Rp1588
sbg9
(S's65'
p1589
tp1590
Rp1591
(dp1592
g14
g15
(g16
g17
(dp1593
g54
Nsg55
Nsg19
I01
sg56
Nstp1594
Rp1595
sbtp1596
Rp1597
(dp1598
bg8
(g40
g9
(S'equilibrate_SmacC_to_SmacA_kr'
p1599
tp1600
Rp1601
(dp1602
g14
g15
(g16
g17
(dp1603
g19
I01
stp1604
Rp1605
sbg9
(S's66'
p1606
tp1607
Rp1608
(dp1609
g14
g15
(g16
g17
(dp1610
g54
Nsg55
Nsg19
I01
sg56
Nstp1611
Rp1612
sbtp1613
Rp1614
(dp1615
btp1616
Rp1617
(dp1618
bsg65
I01
sg66
(I66
tp1619
sa(dp1620
g2
(I64
tp1621
sg4
S'equilibrate_CytoCC_to_CytoCA'
p1622
sg6
g7
(g8
(g40
g9
(S'equilibrate_CytoCC_to_CytoCA_kr'
p1623
tp1624
Rp1625
(dp1626
g14
g15
(g16
g17
(dp1627
g19
I01
stp1628
Rp1629
sbg9
(S's67'
p1630
tp1631
Rp1632
(dp1633
g14
g15
(g16
g17
(dp1634
g54
Nsg55
Nsg19
I01
sg56
Nstp1635
Rp1636
sbtp1637
Rp1638
(dp1639
bg8
(g9
(S'equilibrate_CytoCC_to_CytoCA_kf'
p1640
tp1641
Rp1642
(dp1643
g14
g15
(g16
g17
(dp1644
g19
I01
stp1645
Rp1646
sbg9
(S's64'
p1647
tp1648
Rp1649
(dp1650
g14
g15
(g16
g17
(dp1651
g54
Nsg55
Nsg19
I01
sg56
Nstp1652
Rp1653
sbtp1654
Rp1655
(dp1656
btp1657
Rp1658
(dp1659
bsg65
I01
sg66
(I67
tp1660
sa(dp1661
g2
(I5
I67
tp1662
sg4
S'bind_CytoCA_ApafI_to_CytoCAApafI'
p1663
sg6
g7
(g8
(g9
(S'bind_CytoCA_ApafI_to_CytoCAApafI_kf'
p1664
tp1665
Rp1666
(dp1667
g14
g15
(g16
g17
(dp1668
g19
I01
stp1669
Rp1670
sbg9
(S's5'
p1671
tp1672
Rp1673
(dp1674
g14
g15
(g16
g17
(dp1675
g19
I01
stp1676
Rp1677
sbg1632
tp1678
Rp1679
(dp1680
bg8
(g40
g9
(S'bind_CytoCA_ApafI_to_CytoCAApafI_kr'
p1681
tp1682
Rp1683
(dp1684
g14
g15
(g16
g17
(dp1685
g19
I01
stp1686
Rp1687
sbg9
(S's68'
p1688
tp1689
Rp1690
(dp1691
g14
g15
(g16
g17
(dp1692
g54
Nsg55
Nsg19
I01
sg56
Nstp1693
Rp1694
sbtp1695
Rp1696
(dp1697
btp1698
Rp1699
(dp1700
bsg65
I01
sg66
(I68
tp1701
sa(dp1702
g2
(I10
I66
tp1703
sg4
S'bind_SmacA_XIAP'
p1704
sg6
g7
(g8
(g40
g9
(S'bind_SmacA_XIAP_kr'
p1705
tp1706
Rp1707
(dp1708
g14
g15
(g16
g17
(dp1709
g19
I01
stp1710
Rp1711
sbg9
(S's69'
p1712
tp1713
Rp1714
(dp1715
g14
g15
(g16
g17
(dp1716
g54
Nsg55
Nsg19
I01
sg56
Nstp1717
Rp1718
sbtp1719
Rp1720
(dp1721
bg8
(g9
(S'bind_SmacA_XIAP_kf'
p1722
tp1723
Rp1724
(dp1725
g14
g15
(g16
g17
(dp1726
g19
I01
stp1727
Rp1728
sbg454
g1608
tp1729
Rp1730
(dp1731
btp1732
Rp1733
(dp1734
bsg65
I01
sg66
(I69
tp1735
sa(dp1736
g2
(I68
tp1737
sg4
S'catalyze_CytoCAApafI_to_CytoCA_ApafA'
p1738
sg6
g8
(g9
(S'catalyze_CytoCAApafI_to_CytoCA_ApafA_kc'
p1739
tp1740
Rp1741
(dp1742
g14
g15
(g16
g17
(dp1743
g19
I01
stp1744
Rp1745
sbg1690
tp1746
Rp1747
(dp1748
bsg65
I00
sg66
(I67
I70
tp1749
sa(dp1750
g2
(I8
I70
tp1751
sg4
S'convert_ApafA_C9_to_Apop'
p1752
sg6
g7
(g8
(g40
g9
(S'convert_ApafA_C9_to_Apop_kr'
p1753
tp1754
Rp1755
(dp1756
g14
g15
(g16
g17
(dp1757
g19
I01
stp1758
Rp1759
sbg9
(S's71'
p1760
tp1761
Rp1762
(dp1763
g14
g15
(g16
g17
(dp1764
g54
Nsg55
Nsg19
I01
sg56
Nstp1765
Rp1766
sbtp1767
Rp1768
(dp1769
bg8
(g9
(S'convert_ApafA_C9_to_Apop_kf'
p1770
tp1771
Rp1772
(dp1773
g14
g15
(g16
g17
(dp1774
g19
I01
stp1775
Rp1776
sbg9
(S's70'
p1777
tp1778
Rp1779
(dp1780
g14
g15
(g16
g17
(dp1781
g19
I01
stp1782
Rp1783
sbg9
(S's8'
p1784
tp1785
Rp1786
(dp1787
g14
g15
(g16
g17
(dp1788
g19
I01
stp1789
Rp1790
sbtp1791
Rp1792
(dp1793
btp1794
Rp1795
(dp1796
bsg65
I01
sg66
(I71
tp1797
sa(dp1798
g2
(I6
I71
tp1799
sg4
S'bind_Apop_C3pro_to_ApopC3pro'
p1800
sg6
g7
(g8
(g9
(S'bind_Apop_C3pro_to_ApopC3pro_kf'
p1801
tp1802
Rp1803
(dp1804
g14
g15
(g16
g17
(dp1805
g19
I01
stp1806
Rp1807
sbg368
g1762
tp1808
Rp1809
(dp1810
bg8
(g40
g9
(S'bind_Apop_C3pro_to_ApopC3pro_kr'
p1811
tp1812
Rp1813
(dp1814
g14
g15
(g16
g17
(dp1815
g19
I01
stp1816
Rp1817
sbg9
(S's72'
p1818
tp1819
Rp1820
(dp1821
g14
g15
(g16
g17
(dp1822
g54
Nsg55
Nsg19
I01
sg56
Nstp1823
Rp1824
sbtp1825
Rp1826
(dp1827
btp1828
Rp1829
(dp1830
bsg65
I01
sg66
(I72
tp1831
sa(dp1832
g2
(I10
I71
tp1833
sg4
S'bind_Apop_XIAP'
p1834
sg6
g7
(g8
(g40
g9
(S'bind_Apop_XIAP_kr'
p1835
tp1836
Rp1837
(dp1838
g14
g15
(g16
g17
(dp1839
g19
I01
stp1840
Rp1841
sbg9
(S's73'
p1842
tp1843
Rp1844
(dp1845
g14
g15
(g16
g17
(dp1846
g54
Nsg55
Nsg19
I01
sg56
Nstp1847
Rp1848
sbtp1849
Rp1850
(dp1851
bg8
(g9
(S'bind_Apop_XIAP_kf'
p1852
tp1853
Rp1854
(dp1855
g14
g15
(g16
g17
(dp1856
g19
I01
stp1857
Rp1858
sbg454
g1762
tp1859
Rp1860
(dp1861
btp1862
Rp1863
(dp1864
bsg65
I01
sg66
(I73
tp1865
sa(dp1866
g2
(I72
tp1867
sg4
S'catalyze_ApopC3pro_to_Apop_C3A'
p1868
sg6
g8
(g9
(S'catalyze_ApopC3pro_to_Apop_C3A_kc'
p1869
tp1870
Rp1871
(dp1872
g14
g15
(g16
g17
(dp1873
g19
I01
stp1874
Rp1875
sbg1820
tp1876
Rp1877
(dp1878
bsg65
I00
sg66
(I32
I71
tp1879
sa.