ccopy_reg
_reconstructor
p0
(cpysb.core
ComponentSet
p1
c__builtin__
object
p2
Ntp3
Rp4
(dp5
S'_index_map'
p6
(dp7
S'cPARP'
p8
I2
sS'mBid'
p9
I0
sS'aSmac'
p10
I1
ssS'_elements'
p11
(lp12
g0
(cpysb.core
Observable
p13
g2
Ntp14
Rp15
(dp16
S'coefficients'
p17
(lp18
I1
aI1
aI1
aI1
aI1
aI1
asS'name'
p19
g9
sS'reaction_pattern'
p20
g0
(cpysb.core
ReactionPattern
p21
g2
Ntp22
Rp23
(dp24
S'complex_patterns'
p25
(lp26
g0
(cpysb.core
ComplexPattern
p27
g2
Ntp28
Rp29
(dp30
S'compartment'
p31
NsS'monomer_patterns'
p32
(lp33
g0
(cpysb.core
MonomerPattern
p34
g2
Ntp35
Rp36
(dp37
g31
NsS'monomer'
p38
g0
(cpysb.core
Monomer
p39
g2
Ntp40
Rp41
(dp42
g19
S'Bid'
p43
sS'site_states'
p44
(dp45
S'state'
p46
(lp47
S'U'
p48
aS'T'
p49
aS'M'
p50
assS'difc'
p51
NsS'sites'
p52
(lp53
S'bf'
p54
ag46
asS'_export'
p55
I01
sbsS'site_conditions'
p56
(dp57
g46
g50
ssbasS'match_once'
p58
I00
sbasbsS'match'
p59
S'molecules'
p60
sg55
I01
sS'species'
p61
(lp62
I36
aI40
aI41
aI42
aI43
aI44
asbag0
(g13
g2
Ntp63
Rp64
(dp65
g17
(lp66
I1
aI1
asg19
g10
sg20
g0
(g21
g2
Ntp67
Rp68
(dp69
g25
(lp70
g0
(g27
g2
Ntp71
Rp72
(dp73
g31
Nsg32
(lp74
g0
(g34
g2
Ntp75
Rp76
(dp77
g31
Nsg38
g0
(g39
g2
Ntp78
Rp79
(dp80
g19
S'Smac'
p81
sg44
(dp82
g46
(lp83
g50
aS'C'
p84
aS'A'
p85
assg51
Nsg52
(lp86
g54
ag46
asg55
I01
sbsg56
(dp87
g46
g85
ssbasg58
I00
sbasbsg59
g60
sg55
I01
sg61
(lp88
I66
aI69
asbag0
(g13
g2
Ntp89
Rp90
(dp91
g17
(lp92
I1
asg19
g8
sg20
g0
(g21
g2
Ntp93
Rp94
(dp95
g25
(lp96
g0
(g27
g2
Ntp97
Rp98
(dp99
g31
Nsg32
(lp100
g0
(g34
g2
Ntp101
Rp102
(dp103
g31
Nsg38
g0
(g39
g2
Ntp104
Rp105
(dp106
g19
S'PARP'
p107
sg44
(dp108
g46
(lp109
g48
ag84
assg51
Nsg52
(lp110
g54
ag46
asg55
I01
sbsg56
(dp111
g46
g84
ssbasg58
I00
sbasbsg59
g60
sg55
I01
sg61
(lp112
I38
asbasS'_map'
p113
(dp114
g8
g90
sg9
g15
sg10
g64
ssb.