(lp0
ccopy_reg
_reconstructor
p1
(cpysb.core
ComplexPattern
p2
c__builtin__
object
p3
Ntp4
Rp5
(dp6
S'compartment'
p7
NsS'monomer_patterns'
p8
(lp9
g1
(cpysb.core
MonomerPattern
p10
g3
Ntp11
Rp12
(dp13
g7
NsS'monomer'
p14
g1
(cpysb.core
Monomer
p15
g3
Ntp16
Rp17
(dp18
S'name'
p19
S'L'
p20
sS'site_states'
p21
(dp22
sS'difc'
p23
NsS'sites'
p24
(lp25
S'bf'
p26
asS'_export'
p27
I01
sbsS'site_conditions'
p28
(dp29
S'bf'
p30
NssbasS'match_once'
p31
I00
sbag1
(g2
g3
Ntp32
Rp33
(dp34
g7
Nsg8
(lp35
g1
(g10
g3
Ntp36
Rp37
(dp38
g7
Nsg14
g1
(g15
g3
Ntp39
Rp40
(dp41
g19
S'R'
p42
sg21
g22
sg23
Nsg24
(lp43
g26
asg27
I01
sbsg28
(dp44
S'bf'
p45
Nssbasg31
I00
sbag1
(g2
g3
Ntp46
Rp47
(dp48
g7
Nsg8
(lp49
g1
(g10
g3
Ntp50
Rp51
(dp52
g7
Nsg14
g1
(g15
g3
Ntp53
Rp54
(dp55
g19
S'flip'
p56
sg21
g22
sg23
Nsg24
(lp57
g26
asg27
I01
sbsg28
(dp58
S'bf'
p59
Nssbasg31
I00
sbag1
(g2
g3
Ntp60
Rp61
(dp62
g7
Nsg8
(lp63
g1
(g10
g3
Ntp64
Rp65
(dp66
g7
Nsg14
g1
(g15
g3
Ntp67
Rp68
(dp69
g19
S'C8'
p70
sg21
(dp71
S'state'
p72
(lp73
S'pro'
p74
aS'A'
p75
assg23
Nsg24
(lp76
g26
ag72
asg27
I01
sbsg28
(dp77
S'bf'
p78
NsS'state'
p79
S'pro'
p80
ssbasg31
I00
sbag1
(g2
g3
Ntp81
Rp82
(dp83
g7
Nsg8
(lp84
g1
(g10
g3
Ntp85
Rp86
(dp87
g7
Nsg14
g1
(g15
g3
Ntp88
Rp89
(dp90
g19
S'BAR'
p91
sg21
g22
sg23
Nsg24
(lp92
g26
asg27
I01
sbsg28
(dp93
S'bf'
p94
Nssbasg31
I00
sbag1
(g2
g3
Ntp95
Rp96
(dp97
g7
Nsg8
(lp98
g1
(g10
g3
Ntp99
Rp100
(dp101
g7
Nsg14
g1
(g15
g3
Ntp102
Rp103
(dp104
g19
S'Apaf'
p105
sg21
(dp106
g72
(lp107
S'I'
p108
ag75
assg23
Nsg24
(lp109
g26
ag72
asg27
I01
sbsg28
(dp110
S'bf'
p111
NsS'state'
p112
g108
ssbasg31
I00
sbag1
(g2
g3
Ntp113
Rp114
(dp115
g7
Nsg8
(lp116
g1
(g10
g3
Ntp117
Rp118
(dp119
g7
Nsg14
g1
(g15
g3
Ntp120
Rp121
(dp122
g19
S'C3'
p123
sg21
(dp124
g72
(lp125
g74
ag75
aS'ub'
p126
assg23
Nsg24
(lp127
g26
ag72
asg27
I01
sbsg28
(dp128
S'bf'
p129
NsS'state'
p130
S'pro'
p131
ssbasg31
I00
sbag1
(g2
g3
Ntp132
Rp133
(dp134
g7
Nsg8
(lp135
g1
(g10
g3
Ntp136
Rp137
(dp138
g7
Nsg14
g1
(g15
g3
Ntp139
Rp140
(dp141
g19
S'C6'
p142
sg21
(dp143
g72
(lp144
g74
ag75
assg23
Nsg24
(lp145
g26
ag72
asg27
I01
sbsg28
(dp146
S'bf'
p147
NsS'state'
p148
S'pro'
p149
ssbasg31
I00
sbag1
(g2
g3
Ntp150
Rp151
(dp152
g7
Nsg8
(lp153
g1
(g10
g3
Ntp154
Rp155
(dp156
g7
Nsg14
g1
(g15
g3
Ntp157
Rp158
(dp159
g19
S'C9'
p160
sg21
g22
sg23
Nsg24
(lp161
g26
asg27
I01
sbsg28
(dp162
S'bf'
p163
Nssbasg31
I00
sbag1
(g2
g3
Ntp164
Rp165
(dp166
g7
Nsg8
(lp167
g1
(g10
g3
Ntp168
Rp169
(dp170
g7
Nsg14
g1
(g15
g3
Ntp171
Rp172
(dp173
g19
S'PARP'
p174
sg21
(dp175
g72
(lp176
S'U'
p177
aS'C'
p178
assg23
Nsg24
(lp179
g26
ag72
asg27
I01
sbsg28
(dp180
S'bf'
p181
NsS'state'
p182
g177
ssbasg31
I00
sbag1
(g2
g3
Ntp183
Rp184
(dp185
g7
Nsg8
(lp186
g1
(g10
g3
Ntp187
Rp188
(dp189
g7
Nsg14
g1
(g15
g3
Ntp190
Rp191
(dp192
g19
S'XIAP'
p193
sg21
g22
sg23
Nsg24
(lp194
g26
asg27
I01
sbsg28
(dp195
S'bf'
p196
Nssbasg31
I00
sbag1
(g2
g3
Ntp197
Rp198
(dp199
g7
Nsg8
(lp200
g1
(g10
g3
Ntp201
Rp202
(dp203
g7
Nsg14
g1
(g15
g3
Ntp204
Rp205
(dp206
g19
S'Bid'
p207
sg21
(dp208
g72
(lp209
g177
aS'T'
p210
aS'M'
p211
assg23
Nsg24
(lp212
g26
ag72
asg27
I01
sbsg28
(dp213
S'bf'
p214
NsS'state'
p215
g177
ssbasg31
I00
sbag1
(g2
g3
Ntp216
Rp217
(dp218
g7
Nsg8
(lp219
g1
(g10
g3
Ntp220
Rp221
(dp222
g7
Nsg14
g1
(g15
g3
Ntp223
Rp224
(dp225
g19
S'Bad'
p226
sg21
(dp227
g72
(lp228
g178
ag211
assg23
Nsg24
(lp229
g26
ag72
asg27
I01
sbsg28
(dp230
S'bf'
p231
NsS'state'
p232
g178
ssbasg31
I00
sbag1
(g2
g3
Ntp233
Rp234
(dp235
g7
Nsg8
(lp236
g1
(g10
g3
Ntp237
Rp238
(dp239
g7
Nsg14
g1
(g15
g3
Ntp240
Rp241
(dp242
g19
S'Bax'
p243
sg21
(dp244
g72
(lp245
g178
ag211
ag75
assg23
Nsg24
(lp246
g26
aS's1'
p247
aS's2'
p248
ag72
asg27
I01
sbsg28
(dp249
S's2'
p250
NsS'bf'
p251
NsS's1'
p252
NsS'state'
p253
g178
ssbasg31
I00
sbag1
(g2
g3
Ntp254
Rp255
(dp256
g7
Nsg8
(lp257
g1
(g10
g3
Ntp258
Rp259
(dp260
g7
Nsg14
g1
(g15
g3
Ntp261
Rp262
(dp263
g19
S'Bak'
p264
sg21
(dp265
g72
(lp266
g211
ag75
assg23
Nsg24
(lp267
g26
ag247
ag248
ag72
asg27
I01
sbsg28
(dp268
S's2'
p269
NsS'bf'
p270
NsS's1'
p271
NsS'state'
p272
g211
ssbasg31
I00
sbag1
(g2
g3
Ntp273
Rp274
(dp275
g7
Nsg8
(lp276
g1
(g10
g3
Ntp277
Rp278
(dp279
g7
Nsg14
g1
(g15
g3
Ntp280
Rp281
(dp282
g19
S'Bcl2'
p283
sg21
g22
sg23
Nsg24
(lp284
g26
asg27
I01
sbsg28
(dp285
S'bf'
p286
Nssbasg31
I00
sbag1
(g2
g3
Ntp287
Rp288
(dp289
g7
Nsg8
(lp290
g1
(g10
g3
Ntp291
Rp292
(dp293
g7
Nsg14
g1
(g15
g3
Ntp294
Rp295
(dp296
g19
S'BclxL'
p297
sg21
(dp298
g72
(lp299
g178
ag211
assg23
Nsg24
(lp300
g26
ag72
asg27
I01
sbsg28
(dp301
S'bf'
p302
NsS'state'
p303
g178
ssbasg31
I00
sbag1
(g2
g3
Ntp304
Rp305
(dp306
g7
Nsg8
(lp307
g1
(g10
g3
Ntp308
Rp309
(dp310
g7
Nsg14
g1
(g15
g3
Ntp311
Rp312
(dp313
g19
S'Mcl1'
p314
sg21
(dp315
g72
(lp316
g211
ag178
assg23
Nsg24
(lp317
g26
ag72
asg27
I01
sbsg28
(dp318
S'bf'
p319
NsS'state'
p320
g211
ssbasg31
I00
sbag1
(g2
g3
Ntp321
Rp322
(dp323
g7
Nsg8
(lp324
g1
(g10
g3
Ntp325
Rp326
(dp327
g7
Nsg14
g1
(g15
g3
Ntp328
Rp329
(dp330
g19
S'Noxa'
p331
sg21
(dp332
g72
(lp333
g178
ag211
assg23
Nsg24
(lp334
g26
ag72
asg27
I01
sbsg28
(dp335
S'bf'
p336
NsS'state'
p337
g178
ssbasg31
I00
sbag1
(g2
g3
Ntp338
Rp339
(dp340
g7
Nsg8
(lp341
g1
(g10
g3
Ntp342
Rp343
(dp344
g7
Nsg14
g1
(g15
g3
Ntp345
Rp346
(dp347
g19
S'CytoC'
p348
sg21
(dp349
g72
(lp350
g211
ag178
ag75
assg23
Nsg24
(lp351
g26
ag72
asg27
I01
sbsg28
(dp352
S'bf'
p353
NsS'state'
p354
g211
ssbasg31
I00
sbag1
(g2
g3
Ntp355
Rp356
(dp357
g7
Nsg8
(lp358
g1
(g10
g3
Ntp359
Rp360
(dp361
g7
Nsg14
g1
(g15
g3
Ntp362
Rp363
(dp364
g19
S'Smac'
p365
sg21
(dp366
g72
(lp367
g211
ag178
ag75
assg23
Nsg24
(lp368
g26
ag72
asg27
I01
sbsg28
(dp369
S'bf'
p370
NsS'state'
p371
g211
ssbasg31
I00
sbag1
(g2
g3
Ntp372
Rp373
(dp374
g7
Nsg8
(lp375
g1
(g10
g3
Ntp376
Rp377
(dp378
g7
Nsg14
g17
sg28
(dp379
S'bf'
p380
I1
ssbag1
(g10
g3
Ntp381
Rp382
(dp383
g7
Nsg14
g40
sg28
(dp384
S'bf'
p385
I1
ssbasg31
I00
sbag1
(g2
g3
Ntp386
Rp387
(dp388
g7
Nsg8
(lp389
g1
(g10
g3
Ntp390
Rp391
(dp392
g7
Nsg14
g241
sg28
(dp393
S's2'
p394
NsS'bf'
p395
NsS's1'
p396
NsS'state'
p397
g211
ssbasg31
I00
sbag1
(g2
g3
Ntp398
Rp399
(dp400
g7
Nsg8
(lp401
g1
(g10
g3
Ntp402
Rp403
(dp404
g7
Nsg14
g295
sg28
(dp405
S'bf'
p406
NsS'state'
p407
g211
ssbasg31
I00
sbag1
(g2
g3
Ntp408
Rp409
(dp410
g7
Nsg8
(lp411
g1
(g10
g3
Ntp412
Rp413
(dp414
g7
Nsg14
g1
(g15
g3
Ntp415
Rp416
(dp417
g19
S'DISC'
p418
sg21
g22
sg23
Nsg24
(lp419
g26
asg27
I01
sbsg28
(dp420
S'bf'
p421
Nssbasg31
I00
sbag1
(g2
g3
Ntp422
Rp423
(dp424
g7
Nsg8
(lp425
g1
(g10
g3
Ntp426
Rp427
(dp428
g7
Nsg14
g68
sg28
(dp429
S'bf'
p430
I1
sS'state'
p431
S'pro'
p432
ssbag1
(g10
g3
Ntp433
Rp434
(dp435
g7
Nsg14
g416
sg28
(dp436
S'bf'
p437
I1
ssbasg31
I00
sbag1
(g2
g3
Ntp438
Rp439
(dp440
g7
Nsg8
(lp441
g1
(g10
g3
Ntp442
Rp443
(dp444
g7
Nsg14
g416
sg28
(dp445
S'bf'
p446
I1
ssbag1
(g10
g3
Ntp447
Rp448
(dp449
g7
Nsg14
g54
sg28
(dp450
S'bf'
p451
I1
ssbasg31
I00
sbag1
(g2
g3
Ntp452
Rp453
(dp454
g7
Nsg8
(lp455
g1
(g10
g3
Ntp456
Rp457
(dp458
g7
Nsg14
g68
sg28
(dp459
S'bf'
p460
NsS'state'
p461
g75
ssbasg31
I00
sbag1
(g2
g3
Ntp462
Rp463
(dp464
g7
Nsg8
(lp465
g1
(g10
g3
Ntp466
Rp467
(dp468
g7
Nsg14
g205
sg28
(dp469
S'bf'
p470
I1
sS'state'
p471
g177
ssbag1
(g10
g3
Ntp472
Rp473
(dp474
g7
Nsg14
g68
sg28
(dp475
S'bf'
p476
I1
sS'state'
p477
g75
ssbasg31
I00
sbag1
(g2
g3
Ntp478
Rp479
(dp480
g7
Nsg8
(lp481
g1
(g10
g3
Ntp482
Rp483
(dp484
g7
Nsg14
g89
sg28
(dp485
S'bf'
p486
I1
ssbag1
(g10
g3
Ntp487
Rp488
(dp489
g7
Nsg14
g68
sg28
(dp490
S'bf'
p491
I1
sS'state'
p492
g75
ssbasg31
I00
sbag1
(g2
g3
Ntp493
Rp494
(dp495
g7
Nsg8
(lp496
g1
(g10
g3
Ntp497
Rp498
(dp499
g7
Nsg14
g121
sg28
(dp500
S'bf'
p501
I1
sS'state'
p502
S'pro'
p503
ssbag1
(g10
g3
Ntp504
Rp505
(dp506
g7
Nsg14
g68
sg28
(dp507
S'bf'
p508
I1
sS'state'
p509
g75
ssbasg31
I00
sbag1
(g2
g3
Ntp510
Rp511
(dp512
g7
Nsg8
(lp513
g1
(g10
g3
Ntp514
Rp515
(dp516
g7
Nsg14
g205
sg28
(dp517
S'bf'
p518
NsS'state'
p519
g210
ssbasg31
I00
sbag1
(g2
g3
Ntp520
Rp521
(dp522
g7
Nsg8
(lp523
g1
(g10
g3
Ntp524
Rp525
(dp526
g7
Nsg14
g121
sg28
(dp527
S'bf'
p528
NsS'state'
p529
g75
ssbasg31
I00
sbag1
(g2
g3
Ntp530
Rp531
(dp532
g7
Nsg8
(lp533
g1
(g10
g3
Ntp534
Rp535
(dp536
g7
Nsg14
g121
sg28
(dp537
S'bf'
p538
I1
sS'state'
p539
g75
ssbag1
(g10
g3
Ntp540
Rp541
(dp542
g7
Nsg14
g191
sg28
(dp543
S'bf'
p544
I1
ssbasg31
I00
sbag1
(g2
g3
Ntp545
Rp546
(dp547
g7
Nsg8
(lp548
g1
(g10
g3
Ntp549
Rp550
(dp551
g7
Nsg14
g121
sg28
(dp552
S'bf'
p553
I1
sS'state'
p554
g75
ssbag1
(g10
g3
Ntp555
Rp556
(dp557
g7
Nsg14
g172
sg28
(dp558
S'bf'
p559
I1
sS'state'
p560
g177
ssbasg31
I00
sbag1
(g2
g3
Ntp561
Rp562
(dp563
g7
Nsg8
(lp564
g1
(g10
g3
Ntp565
Rp566
(dp567
g7
Nsg14
g121
sg28
(dp568
S'bf'
p569
I1
sS'state'
p570
g75
ssbag1
(g10
g3
Ntp571
Rp572
(dp573
g7
Nsg14
g140
sg28
(dp574
S'bf'
p575
I1
sS'state'
p576
S'pro'
p577
ssbasg31
I00
sbag1
(g2
g3
Ntp578
Rp579
(dp580
g7
Nsg8
(lp581
g1
(g10
g3
Ntp582
Rp583
(dp584
g7
Nsg14
g205
sg28
(dp585
S'bf'
p586
NsS'state'
p587
g211
ssbasg31
I00
sbag1
(g2
g3
Ntp588
Rp589
(dp590
g7
Nsg8
(lp591
g1
(g10
g3
Ntp592
Rp593
(dp594
g7
Nsg14
g121
sg28
(dp595
S'bf'
p596
NsS'state'
p597
S'ub'
p598
ssbasg31
I00
sbag1
(g2
g3
Ntp599
Rp600
(dp601
g7
Nsg8
(lp602
g1
(g10
g3
Ntp603
Rp604
(dp605
g7
Nsg14
g172
sg28
(dp606
S'bf'
p607
NsS'state'
p608
g178
ssbasg31
I00
sbag1
(g2
g3
Ntp609
Rp610
(dp611
g7
Nsg8
(lp612
g1
(g10
g3
Ntp613
Rp614
(dp615
g7
Nsg14
g140
sg28
(dp616
S'bf'
p617
NsS'state'
p618
g75
ssbasg31
I00
sbag1
(g2
g3
Ntp619
Rp620
(dp621
g7
Nsg8
(lp622
g1
(g10
g3
Ntp623
Rp624
(dp625
g7
Nsg14
g241
sg28
(dp626
S's2'
p627
NsS'bf'
p628
I1
sS's1'
p629
NsS'state'
p630
g211
ssbag1
(g10
g3
Ntp631
Rp632
(dp633
g7
Nsg14
g205
sg28
(dp634
S'bf'
p635
I1
sS'state'
p636
g211
ssbasg31
I00
sbag1
(g2
g3
Ntp637
Rp638
(dp639
g7
Nsg8
(lp640
g1
(g10
g3
Ntp641
Rp642
(dp643
g7
Nsg14
g262
sg28
(dp644
S's2'
p645
NsS'bf'
p646
I1
sS's1'
p647
NsS'state'
p648
g211
ssbag1
(g10
g3
Ntp649
Rp650
(dp651
g7
Nsg14
g205
sg28
(dp652
S'bf'
p653
I1
sS'state'
p654
g211
ssbasg31
I00
sbag1
(g2
g3
Ntp655
Rp656
(dp657
g7
Nsg8
(lp658
g1
(g10
g3
Ntp659
Rp660
(dp661
g7
Nsg14
g281
sg28
(dp662
S'bf'
p663
I1
ssbag1
(g10
g3
Ntp664
Rp665
(dp666
g7
Nsg14
g205
sg28
(dp667
S'bf'
p668
I1
sS'state'
p669
g211
ssbasg31
I00
sbag1
(g2
g3
Ntp670
Rp671
(dp672
g7
Nsg8
(lp673
g1
(g10
g3
Ntp674
Rp675
(dp676
g7
Nsg14
g295
sg28
(dp677
S'bf'
p678
I1
sS'state'
p679
g211
ssbag1
(g10
g3
Ntp680
Rp681
(dp682
g7
Nsg14
g205
sg28
(dp683
S'bf'
p684
I1
sS'state'
p685
g211
ssbasg31
I00
sbag1
(g2
g3
Ntp686
Rp687
(dp688
g7
Nsg8
(lp689
g1
(g10
g3
Ntp690
Rp691
(dp692
g7
Nsg14
g205
sg28
(dp693
S'bf'
p694
I1
sS'state'
p695
g211
ssbag1
(g10
g3
Ntp696
Rp697
(dp698
g7
Nsg14
g312
sg28
(dp699
S'bf'
p700
I1
sS'state'
p701
g211
ssbasg31
I00
sbag1
(g2
g3
Ntp702
Rp703
(dp704
g7
Nsg8
(lp705
g1
(g10
g3
Ntp706
Rp707
(dp708
g7
Nsg14
g140
sg28
(dp709
S'bf'
p710
I1
sS'state'
p711
g75
ssbag1
(g10
g3
Ntp712
Rp713
(dp714
g7
Nsg14
g68
sg28
(dp715
S'bf'
p716
I1
sS'state'
p717
S'pro'
p718
ssbasg31
I00
sbag1
(g2
g3
Ntp719
Rp720
(dp721
g7
Nsg8
(lp722
g1
(g10
g3
Ntp723
Rp724
(dp725
g7
Nsg14
g241
sg28
(dp726
S's2'
p727
NsS'bf'
p728
NsS's1'
p729
NsS'state'
p730
g75
ssbasg31
I00
sbag1
(g2
g3
Ntp731
Rp732
(dp733
g7
Nsg8
(lp734
g1
(g10
g3
Ntp735
Rp736
(dp737
g7
Nsg14
g262
sg28
(dp738
S's2'
p739
NsS'bf'
p740
NsS's1'
p741
NsS'state'
p742
g75
ssbasg31
I00
sbag1
(g2
g3
Ntp743
Rp744
(dp745
g7
Nsg8
(lp746
g1
(g10
g3
Ntp747
Rp748
(dp749
g7
Nsg14
g241
sg28
(dp750
S's2'
p751
NsS'bf'
p752
I1
sS's1'
p753
NsS'state'
p754
g75
ssbag1
(g10
g3
Ntp755
Rp756
(dp757
g7
Nsg14
g241
sg28
(dp758
S's2'
p759
NsS'bf'
p760
I1
sS's1'
p761
NsS'state'
p762
g211
ssbasg31
I00
sbag1
(g2
g3
Ntp763
Rp764
(dp765
g7
Nsg8
(lp766
g1
(g10
g3
Ntp767
Rp768
(dp769
g7
Nsg14
g262
sg28
(dp770
S's2'
p771
NsS'bf'
p772
I1
sS's1'
p773
NsS'state'
p774
g75
ssbag1
(g10
g3
Ntp775
Rp776
(dp777
g7
Nsg14
g262
sg28
(dp778
S's2'
p779
NsS'bf'
p780
I1
sS's1'
p781
NsS'state'
p782
g211
ssbasg31
I00
sbag1
(g2
g3
Ntp783
Rp784
(dp785
g7
Nsg8
(lp786
g1
(g10
g3
Ntp787
Rp788
(dp789
g7
Nsg14
g241
sg28
(dp790
S's2'
p791
NsS'bf'
p792
I1
sS's1'
p793
NsS'state'
p794
g75
ssbag1
(g10
g3
Ntp795
Rp796
(dp797
g7
Nsg14
g281
sg28
(dp798
S'bf'
p799
I1
ssbasg31
I00
sbag1
(g2
g3
Ntp800
Rp801
(dp802
g7
Nsg8
(lp803
g1
(g10
g3
Ntp804
Rp805
(dp806
g7
Nsg14
g241
sg28
(dp807
S's2'
p808
NsS'bf'
p809
I1
sS's1'
p810
NsS'state'
p811
g75
ssbag1
(g10
g3
Ntp812
Rp813
(dp814
g7
Nsg14
g295
sg28
(dp815
S'bf'
p816
I1
sS'state'
p817
g211
ssbasg31
I00
sbag1
(g2
g3
Ntp818
Rp819
(dp820
g7
Nsg8
(lp821
g1
(g10
g3
Ntp822
Rp823
(dp824
g7
Nsg14
g262
sg28
(dp825
S's2'
p826
NsS'bf'
p827
I1
sS's1'
p828
NsS'state'
p829
g75
ssbag1
(g10
g3
Ntp830
Rp831
(dp832
g7
Nsg14
g295
sg28
(dp833
S'bf'
p834
I1
sS'state'
p835
g211
ssbasg31
I00
sbag1
(g2
g3
Ntp836
Rp837
(dp838
g7
Nsg8
(lp839
g1
(g10
g3
Ntp840
Rp841
(dp842
g7
Nsg14
g262
sg28
(dp843
S's2'
p844
NsS'bf'
p845
I1
sS's1'
p846
NsS'state'
p847
g75
ssbag1
(g10
g3
Ntp848
Rp849
(dp850
g7
Nsg14
g312
sg28
(dp851
S'bf'
p852
I1
sS'state'
p853
g211
ssbasg31
I00
sbag1
(g2
g3
Ntp854
Rp855
(dp856
g7
Nsg8
(lp857
g1
(g10
g3
Ntp858
Rp859
(dp860
g7
Nsg14
g241
sg28
(dp861
S's2'
p862
NsS'bf'
p863
NsS's1'
p864
I1
sS'state'
p865
g75
ssbag1
(g10
g3
Ntp866
Rp867
(dp868
g7
Nsg14
g241
sg28
(dp869
S's2'
p870
I1
sS'bf'
p871
NsS's1'
p872
NsS'state'
p873
g75
ssbasg31
I00
sbag1
(g2
g3
Ntp874
Rp875
(dp876
g7
Nsg8
(lp877
g1
(g10
g3
Ntp878
Rp879
(dp880
g7
Nsg14
g262
sg28
(dp881
S's2'
p882
NsS'bf'
p883
NsS's1'
p884
I1
sS'state'
p885
g75
ssbag1
(g10
g3
Ntp886
Rp887
(dp888
g7
Nsg14
g262
sg28
(dp889
S's2'
p890
I1
sS'bf'
p891
NsS's1'
p892
NsS'state'
p893
g75
ssbasg31
I00
sbag1
(g2
g3
Ntp894
Rp895
(dp896
g7
Nsg8
(lp897
g1
(g10
g3
Ntp898
Rp899
(dp900
g7
Nsg14
g241
sg28
(dp901
S's2'
p902
I2
sS'bf'
p903
NsS's1'
p904
I1
sS'state'
p905
g75
ssbag1
(g10
g3
Ntp906
Rp907
(dp908
g7
Nsg14
g241
sg28
(dp909
S's2'
p910
I3
sS'bf'
p911
NsS's1'
p912
I2
sS'state'
p913
g75
ssbag1
(g10
g3
Ntp914
Rp915
(dp916
g7
Nsg14
g241
sg28
(dp917
S's2'
p918
I1
sS'bf'
p919
NsS's1'
p920
I3
sS'state'
p921
g75
ssbasg31
I00
sbag1
(g2
g3
Ntp922
Rp923
(dp924
g7
Nsg8
(lp925
g1
(g10
g3
Ntp926
Rp927
(dp928
g7
Nsg14
g262
sg28
(dp929
S's2'
p930
I2
sS'bf'
p931
NsS's1'
p932
I1
sS'state'
p933
g75
ssbag1
(g10
g3
Ntp934
Rp935
(dp936
g7
Nsg14
g262
sg28
(dp937
S's2'
p938
I3
sS'bf'
p939
NsS's1'
p940
I2
sS'state'
p941
g75
ssbag1
(g10
g3
Ntp942
Rp943
(dp944
g7
Nsg14
g262
sg28
(dp945
S's2'
p946
I1
sS'bf'
p947
NsS's1'
p948
I3
sS'state'
p949
g75
ssbasg31
I00
sbag1
(g2
g3
Ntp950
Rp951
(dp952
g7
Nsg8
(lp953
g1
(g10
g3
Ntp954
Rp955
(dp956
g7
Nsg14
g241
sg28
(dp957
S's2'
p958
I2
sS'bf'
p959
NsS's1'
p960
I1
sS'state'
p961
g75
ssbag1
(g10
g3
Ntp962
Rp963
(dp964
g7
Nsg14
g241
sg28
(dp965
S's2'
p966
I3
sS'bf'
p967
NsS's1'
p968
I2
sS'state'
p969
g75
ssbag1
(g10
g3
Ntp970
Rp971
(dp972
g7
Nsg14
g241
sg28
(dp973
S's2'
p974
I4
sS'bf'
p975
NsS's1'
p976
I3
sS'state'
p977
g75
ssbag1
(g10
g3
Ntp978
Rp979
(dp980
g7
Nsg14
g241
sg28
(dp981
S's2'
p982
I1
sS'bf'
p983
NsS's1'
p984
I4
sS'state'
p985
g75
ssbasg31
I00
sbag1
(g2
g3
Ntp986
Rp987
(dp988
g7
Nsg8
(lp989
g1
(g10
g3
Ntp990
Rp991
(dp992
g7
Nsg14
g262
sg28
(dp993
S's2'
p994
I2
sS'bf'
p995
NsS's1'
p996
I1
sS'state'
p997
g75
ssbag1
(g10
g3
Ntp998
Rp999
(dp1000
g7
Nsg14
g262
sg28
(dp1001
S's2'
p1002
I3
sS'bf'
p1003
NsS's1'
p1004
I2
sS'state'
p1005
g75
ssbag1
(g10
g3
Ntp1006
Rp1007
(dp1008
g7
Nsg14
g262
sg28
(dp1009
S's2'
p1010
I4
sS'bf'
p1011
NsS's1'
p1012
I3
sS'state'
p1013
g75
ssbag1
(g10
g3
Ntp1014
Rp1015
(dp1016
g7
Nsg14
g262
sg28
(dp1017
S's2'
p1018
I1
sS'bf'
p1019
NsS's1'
p1020
I4
sS'state'
p1021
g75
ssbasg31
I00
sbag1
(g2
g3
Ntp1022
Rp1023
(dp1024
g7
Nsg8
(lp1025
g1
(g10
g3
Ntp1026
Rp1027
(dp1028
g7
Nsg14
g241
sg28
(dp1029
S's2'
p1030
I3
sS'bf'
p1031
I1
sS's1'
p1032
I2
sS'state'
p1033
g75
ssbag1
(g10
g3
Ntp1034
Rp1035
(dp1036
g7
Nsg14
g241
sg28
(dp1037
S's2'
p1038
I4
sS'bf'
p1039
NsS's1'
p1040
I3
sS'state'
p1041
g75
ssbag1
(g10
g3
Ntp1042
Rp1043
(dp1044
g7
Nsg14
g241
sg28
(dp1045
S's2'
p1046
I5
sS'bf'
p1047
NsS's1'
p1048
I4
sS'state'
p1049
g75
ssbag1
(g10
g3
Ntp1050
Rp1051
(dp1052
g7
Nsg14
g241
sg28
(dp1053
S's2'
p1054
I2
sS'bf'
p1055
NsS's1'
p1056
I5
sS'state'
p1057
g75
ssbag1
(g10
g3
Ntp1058
Rp1059
(dp1060
g7
Nsg14
g346
sg28
(dp1061
S'bf'
p1062
I1
sS'state'
p1063
g211
ssbasg31
I00
sbag1
(g2
g3
Ntp1064
Rp1065
(dp1066
g7
Nsg8
(lp1067
g1
(g10
g3
Ntp1068
Rp1069
(dp1070
g7
Nsg14
g241
sg28
(dp1071
S's2'
p1072
I3
sS'bf'
p1073
I1
sS's1'
p1074
I2
sS'state'
p1075
g75
ssbag1
(g10
g3
Ntp1076
Rp1077
(dp1078
g7
Nsg14
g241
sg28
(dp1079
S's2'
p1080
I4
sS'bf'
p1081
NsS's1'
p1082
I3
sS'state'
p1083
g75
ssbag1
(g10
g3
Ntp1084
Rp1085
(dp1086
g7
Nsg14
g241
sg28
(dp1087
S's2'
p1088
I5
sS'bf'
p1089
NsS's1'
p1090
I4
sS'state'
p1091
g75
ssbag1
(g10
g3
Ntp1092
Rp1093
(dp1094
g7
Nsg14
g241
sg28
(dp1095
S's2'
p1096
I2
sS'bf'
p1097
NsS's1'
p1098
I5
sS'state'
p1099
g75
ssbag1
(g10
g3
Ntp1100
Rp1101
(dp1102
g7
Nsg14
g363
sg28
(dp1103
S'bf'
p1104
I1
sS'state'
p1105
g211
ssbasg31
I00
sbag1
(g2
g3
Ntp1106
Rp1107
(dp1108
g7
Nsg8
(lp1109
g1
(g10
g3
Ntp1110
Rp1111
(dp1112
g7
Nsg14
g262
sg28
(dp1113
S's2'
p1114
I3
sS'bf'
p1115
I1
sS's1'
p1116
I2
sS'state'
p1117
g75
ssbag1
(g10
g3
Ntp1118
Rp1119
(dp1120
g7
Nsg14
g262
sg28
(dp1121
S's2'
p1122
I4
sS'bf'
p1123
NsS's1'
p1124
I3
sS'state'
p1125
g75
ssbag1
(g10
g3
Ntp1126
Rp1127
(dp1128
g7
Nsg14
g262
sg28
(dp1129
S's2'
p1130
I5
sS'bf'
p1131
NsS's1'
p1132
I4
sS'state'
p1133
g75
ssbag1
(g10
g3
Ntp1134
Rp1135
(dp1136
g7
Nsg14
g262
sg28
(dp1137
S's2'
p1138
I2
sS'bf'
p1139
NsS's1'
p1140
I5
sS'state'
p1141
g75
ssbag1
(g10
g3
Ntp1142
Rp1143
(dp1144
g7
Nsg14
g346
sg28
(dp1145
S'bf'
p1146
I1
sS'state'
p1147
g211
ssbasg31
I00
sbag1
(g2
g3
Ntp1148
Rp1149
(dp1150
g7
Nsg8
(lp1151
g1
(g10
g3
Ntp1152
Rp1153
(dp1154
g7
Nsg14
g262
sg28
(dp1155
S's2'
p1156
I3
sS'bf'
p1157
I1
sS's1'
p1158
I2
sS'state'
p1159
g75
ssbag1
(g10
g3
Ntp1160
Rp1161
(dp1162
g7
Nsg14
g262
sg28
(dp1163
S's2'
p1164
I4
sS'bf'
p1165
NsS's1'
p1166
I3
sS'state'
p1167
g75
ssbag1
(g10
g3
Ntp1168
Rp1169
(dp1170
g7
Nsg14
g262
sg28
(dp1171
S's2'
p1172
I5
sS'bf'
p1173
NsS's1'
p1174
I4
sS'state'
p1175
g75
ssbag1
(g10
g3
Ntp1176
Rp1177
(dp1178
g7
Nsg14
g262
sg28
(dp1179
S's2'
p1180
I2
sS'bf'
p1181
NsS's1'
p1182
I5
sS'state'
p1183
g75
ssbag1
(g10
g3
Ntp1184
Rp1185
(dp1186
g7
Nsg14
g363
sg28
(dp1187
S'bf'
p1188
I1
sS'state'
p1189
g211
ssbasg31
I00
sbag1
(g2
g3
Ntp1190
Rp1191
(dp1192
g7
Nsg8
(lp1193
g1
(g10
g3
Ntp1194
Rp1195
(dp1196
g7
Nsg14
g346
sg28
(dp1197
S'bf'
p1198
NsS'state'
p1199
g178
ssbasg31
I00
sbag1
(g2
g3
Ntp1200
Rp1201
(dp1202
g7
Nsg8
(lp1203
g1
(g10
g3
Ntp1204
Rp1205
(dp1206
g7
Nsg14
g363
sg28
(dp1207
S'bf'
p1208
NsS'state'
p1209
g178
ssbasg31
I00
sbag1
(g2
g3
Ntp1210
Rp1211
(dp1212
g7
Nsg8
(lp1213
g1
(g10
g3
Ntp1214
Rp1215
(dp1216
g7
Nsg14
g363
sg28
(dp1217
S'bf'
p1218
NsS'state'
p1219
g75
ssbasg31
I00
sbag1
(g2
g3
Ntp1220
Rp1221
(dp1222
g7
Nsg8
(lp1223
g1
(g10
g3
Ntp1224
Rp1225
(dp1226
g7
Nsg14
g346
sg28
(dp1227
S'bf'
p1228
NsS'state'
p1229
g75
ssbasg31
I00
sbag1
(g2
g3
Ntp1230
Rp1231
(dp1232
g7
Nsg8
(lp1233
g1
(g10
g3
Ntp1234
Rp1235
(dp1236
g7
Nsg14
g103
sg28
(dp1237
S'bf'
p1238
I1
sS'state'
p1239
g108
ssbag1
(g10
g3
Ntp1240
Rp1241
(dp1242
g7
Nsg14
g346
sg28
(dp1243
S'bf'
p1244
I1
sS'state'
p1245
g75
ssbasg31
I00
sbag1
(g2
g3
Ntp1246
Rp1247
(dp1248
g7
Nsg8
(lp1249
g1
(g10
g3
Ntp1250
Rp1251
(dp1252
g7
Nsg14
g363
sg28
(dp1253
S'bf'
p1254
I1
sS'state'
p1255
g75
ssbag1
(g10
g3
Ntp1256
Rp1257
(dp1258
g7
Nsg14
g191
sg28
(dp1259
S'bf'
p1260
I1
ssbasg31
I00
sbag1
(g2
g3
Ntp1261
Rp1262
(dp1263
g7
Nsg8
(lp1264
g1
(g10
g3
Ntp1265
Rp1266
(dp1267
g7
Nsg14
g103
sg28
(dp1268
S'bf'
p1269
NsS'state'
p1270
g75
ssbasg31
I00
sbag1
(g2
g3
Ntp1271
Rp1272
(dp1273
g7
Nsg8
(lp1274
g1
(g10
g3
Ntp1275
Rp1276
(dp1277
g7
Nsg14
g1
(g15
g3
Ntp1278
Rp1279
(dp1280
g19
S'Apop'
p1281
sg21
g22
sg23
Nsg24
(lp1282
g26
asg27
I01
sbsg28
(dp1283
S'bf'
p1284
Nssbasg31
I00
sbag1
(g2
g3
Ntp1285
Rp1286
(dp1287
g7
Nsg8
(lp1288
g1
(g10
g3
Ntp1289
Rp1290
(dp1291
g7
Nsg14
g1279
sg28
(dp1292
S'bf'
p1293
I1
ssbag1
(g10
g3
Ntp1294
Rp1295
(dp1296
g7
Nsg14
g121
sg28
(dp1297
S'bf'
p1298
I1
sS'state'
p1299
S'pro'
p1300
ssbasg31
I00
sbag1
(g2
g3
Ntp1301
Rp1302
(dp1303
g7
Nsg8
(lp1304
g1
(g10
g3
Ntp1305
Rp1306
(dp1307
g7
Nsg14
g1279
sg28
(dp1308
S'bf'
p1309
I1
ssbag1
(g10
g3
Ntp1310
Rp1311
(dp1312
g7
Nsg14
g191
sg28
(dp1313
S'bf'
p1314
I1
ssbasg31
I00
sba.