(lp0
(lp1
csympy.core.mul
Mul
p2
(csympy.core.numbers
NegativeOne
p3
(tRp4
(dp5
bcsympy.core.symbol
Symbol
p6
(S'bind_L_R_to_LR_kf'
p7
tp8
Rp9
(dp10
S'_assumptions'
p11
ccopy_reg
_reconstructor
p12
(csympy.core.assumptions
StdFactKB
p13
c__builtin__
dict
p14
(dp15
S'positive'
p16
NsS'zero'
p17
NsS'commutative'
p18
I01
sS'negative'
p19
Nstp20
Rp21
sbg6
(S's1'
p22
tp23
Rp24
(dp25
g11
g12
(g13
g14
(dp26
g18
I01
stp27
Rp28
sbtp29
Rp30
(dp31
bag2
(g4
g9
g6
(S's0'
p32
tp33
Rp34
(dp35
g11
g12
(g13
g14
(dp36
g18
I01
stp37
Rp38
sbtp39
Rp40
(dp41
bacsympy.core.numbers
Zero
p42
(tRp43
(dp44
bag43
ag43
ag43
ag43
ag43
ag43
ag43
ag43
ag43
ag43
ag43
ag43
ag43
ag43
ag43
ag43
ag43
ag43
ag6
(S'bind_L_R_to_LR_kr'
p45
tp46
Rp47
(dp48
g11
g12
(g13
g14
(dp49
g18
I01
stp50
Rp51
sbag43
ag43
ag43
ag43
ag43
ag43
ag43
ag43
ag43
ag43
ag43
ag43
ag43
ag43
ag43
ag43
ag43
ag43
ag43
ag43
ag43
ag43
ag43
ag43
ag43
ag43
ag43
ag43
ag43
ag43
ag43
ag43
ag43
ag43
ag43
ag43
ag43
ag43
ag43
ag43
ag43
ag43
ag43
ag43
ag43
ag43
ag43
ag43
ag43
ag43
ag43
ag43
aa(lp52
g30
ag40
ag43
ag43
ag43
ag43
ag43
ag43
ag43
ag43
ag43
ag43
ag43
ag43
ag43
ag43
ag43
ag43
ag43
ag43
ag43
ag47
ag43
ag43
ag43
ag43
ag43
ag43
ag43
ag43
ag43
ag43
ag43
ag43
ag43
ag43
ag43
ag43
ag43
ag43
ag43
ag43
ag43
ag43
ag43
ag43
ag43
ag43
ag43
ag43
ag43
ag43
ag43
ag43
ag43
ag43
ag43
ag43
ag43
ag43
ag43
ag43
ag43
ag43
ag43
ag43
ag43
ag43
ag43
ag43
ag43
ag43
ag43
ag43
aa(lp53
g43
ag43
ag2
(g4
g6
(S'bind_DISC_flip_kf'
p54
tp55
Rp56
(dp57
g11
g12
(g13
g14
(dp58
g16
Nsg17
Nsg18
I01
sg19
Nstp59
Rp60
sbg6
(S's24'
p61
tp62
Rp63
(dp64
g11
g12
(g13
g14
(dp65
g18
I01
stp66
Rp67
sbtp68
Rp69
(dp70
bag43
ag43
ag43
ag43
ag43
ag43
ag43
ag43
ag43
ag43
ag43
ag43
ag43
ag43
ag43
ag43
ag43
ag43
ag43
ag43
ag43
ag2
(g4
g56
g6
(S's2'
p71
tp72
Rp73
(dp74
g11
g12
(g13
g14
(dp75
g18
I01
stp76
Rp77
sbtp78
Rp79
(dp80
bag43
ag6
(S'bind_DISC_flip_kr'
p81
tp82
Rp83
(dp84
g11
g12
(g13
g14
(dp85
g18
I01
stp86
Rp87
sbag43
ag43
ag43
ag43
ag43
ag43
ag43
ag43
ag43
ag43
ag43
ag43
ag43
ag43
ag43
ag43
ag43
ag43
ag43
ag43
ag43
ag43
ag43
ag43
ag43
ag43
ag43
ag43
ag43
ag43
ag43
ag43
ag43
ag43
ag43
ag43
ag43
ag43
ag43
ag43
ag43
ag43
ag43
ag43
ag43
ag43
ag43
aa(lp88
g43
ag43
ag43
acsympy.core.add
Add
p89
(g2
(g4
g6
(S'bind_C6A_C8pro_to_C6AC8pro_kf'
p90
tp91
Rp92
(dp93
g11
g12
(g13
g14
(dp94
g16
Nsg17
Nsg18
I01
sg19
Nstp95
Rp96
sbg6
(S's39'
p97
tp98
Rp99
(dp100
g11
g12
(g13
g14
(dp101
g18
I01
stp102
Rp103
sbtp104
Rp105
(dp106
bg2
(g4
g6
(S'bind_DISC_C8pro_to_DISCC8pro_kf'
p107
tp108
Rp109
(dp110
g11
g12
(g13
g14
(dp111
g16
Nsg17
Nsg18
I01
sg19
Nstp112
Rp113
sbg63
tp114
Rp115
(dp116
btp117
Rp118
(dp119
bag43
ag43
ag43
ag43
ag43
ag43
ag43
ag43
ag43
ag43
ag43
ag43
ag43
ag43
ag43
ag43
ag43
ag43
ag43
ag43
ag2
(g4
g109
g6
(S's3'
p120
tp121
Rp122
(dp123
g11
g12
(g13
g14
(dp124
g18
I01
stp125
Rp126
sbtp127
Rp128
(dp129
bag6
(S'bind_DISC_C8pro_to_DISCC8pro_kr'
p130
tp131
Rp132
(dp133
g11
g12
(g13
g14
(dp134
g18
I01
stp135
Rp136
sbag43
ag43
ag43
ag43
ag43
ag43
ag43
ag43
ag43
ag43
ag43
ag43
ag43
ag2
(g4
g92
g122
tp137
Rp138
(dp139
bag43
ag43
ag43
ag43
ag43
ag6
(S'bind_C6A_C8pro_to_C6AC8pro_kr'
p140
tp141
Rp142
(dp143
g11
g12
(g13
g14
(dp144
g18
I01
stp145
Rp146
sbag43
ag43
ag43
ag43
ag43
ag43
ag43
ag43
ag43
ag43
ag43
ag43
ag43
ag43
ag43
ag43
ag43
ag43
ag43
ag43
ag43
ag43
ag43
ag43
ag43
ag43
ag43
ag43
aa(lp147
g43
ag43
ag43
ag43
ag2
(g4
g6
(S'bind_BAR_C8A_kf'
p148
tp149
Rp150
(dp151
g11
g12
(g13
g14
(dp152
g16
Nsg17
Nsg18
I01
sg19
Nstp153
Rp154
sbg6
(S's27'
p155
tp156
Rp157
(dp158
g11
g12
(g13
g14
(dp159
g18
I01
stp160
Rp161
sbtp162
Rp163
(dp164
bag43
ag43
ag43
ag43
ag43
ag43
ag43
ag43
ag43
ag43
ag43
ag43
ag43
ag43
ag43
ag43
ag43
ag43
ag43
ag43
ag43
ag43
ag2
(g4
g150
g6
(S's4'
p165
tp166
Rp167
(dp168
g11
g12
(g13
g14
(dp169
g18
I01
stp170
Rp171
sbtp172
Rp173
(dp174
bag43
ag6
(S'bind_BAR_C8A_kr'
p175
tp176
Rp177
(dp178
g11
g12
(g13
g14
(dp179
g18
I01
stp180
Rp181
sbag43
ag43
ag43
ag43
ag43
ag43
ag43
ag43
ag43
ag43
ag43
ag43
ag43
ag43
ag43
ag43
ag43
ag43
ag43
ag43
ag43
ag43
ag43
ag43
ag43
ag43
ag43
ag43
ag43
ag43
ag43
ag43
ag43
ag43
ag43
ag43
ag43
ag43
ag43
ag43
ag43
ag43
ag43
ag43
aa(lp182
g43
ag43
ag43
ag43
ag43
ag2
(g4
g6
(S'bind_CytoCA_ApafI_to_CytoCAApafI_kf'
p183
tp184
Rp185
(dp186
g11
g12
(g13
g14
(dp187
g16
Nsg17
Nsg18
I01
sg19
Nstp188
Rp189
sbg6
(S's67'
p190
tp191
Rp192
(dp193
g11
g12
(g13
g14
(dp194
g16
Nsg17
Nsg18
I01
sg19
Nstp195
Rp196
sbtp197
Rp198
(dp199
bag43
ag43
ag43
ag43
ag43
ag43
ag43
ag43
ag43
ag43
ag43
ag43
ag43
ag43
ag43
ag43
ag43
ag43
ag43
ag43
ag43
ag43
ag43
ag43
ag43
ag43
ag43
ag43
ag43
ag43
ag43
ag43
ag43
ag43
ag43
ag43
ag43
ag43
ag43
ag43
ag43
ag43
ag43
ag43
ag43
ag43
ag43
ag43
ag43
ag43
ag43
ag43
ag43
ag43
ag43
ag43
ag43
ag43
ag43
ag43
ag43
ag2
(g4
g185
g6
(S's5'
p200
tp201
Rp202
(dp203
g11
g12
(g13
g14
(dp204
g18
I01
stp205
Rp206
sbtp207
Rp208
(dp209
bag6
(S'bind_CytoCA_ApafI_to_CytoCAApafI_kr'
p210
tp211
Rp212
(dp213
g11
g12
(g13
g14
(dp214
g18
I01
stp215
Rp216
sbag43
ag43
ag43
ag43
ag43
aa(lp217
g43
ag43
ag43
ag43
ag43
ag43
ag89
(g2
(g4
g6
(S'bind_C8A_C3pro_to_C8AC3pro_kf'
p218
tp219
Rp220
(dp221
g11
g12
(g13
g14
(dp222
g16
Nsg17
Nsg18
I01
sg19
Nstp223
Rp224
sbg157
tp225
Rp226
(dp227
bg2
(g4
g6
(S'bind_Apop_C3pro_to_ApopC3pro_kf'
p228
tp229
Rp230
(dp231
g11
g12
(g13
g14
(dp232
g16
Nsg17
Nsg18
I01
sg19
Nstp233
Rp234
sbg6
(S's71'
p235
tp236
Rp237
(dp238
g11
g12
(g13
g14
(dp239
g16
Nsg17
Nsg18
I01
sg19
Nstp240
Rp241
sbtp242
Rp243
(dp244
btp245
Rp246
(dp247
bag43
ag43
ag43
ag43
ag43
ag43
ag43
ag43
ag43
ag43
ag43
ag43
ag43
ag43
ag43
ag43
ag43
ag43
ag43
ag43
ag2
(g4
g220
g6
(S's6'
p248
tp249
Rp250
(dp251
g11
g12
(g13
g14
(dp252
g18
I01
stp253
Rp254
sbtp255
Rp256
(dp257
bag43
ag43
ag6
(S'bind_C8A_C3pro_to_C8AC3pro_kr'
p258
tp259
Rp260
(dp261
g11
g12
(g13
g14
(dp262
g18
I01
stp263
Rp264
sbag43
ag43
ag43
ag43
ag43
ag43
ag43
ag43
ag43
ag43
ag43
ag43
ag43
ag43
ag43
ag43
ag43
ag43
ag43
ag43
ag43
ag43
ag43
ag43
ag43
ag43
ag43
ag43
ag43
ag43
ag43
ag43
ag43
ag43
ag43
ag43
ag43
ag43
ag43
ag43
ag2
(g4
g230
g250
tp265
Rp266
(dp267
bag6
(S'bind_Apop_C3pro_to_ApopC3pro_kr'
p268
tp269
Rp270
(dp271
g11
g12
(g13
g14
(dp272
g18
I01
stp273
Rp274
sbag43
aa(lp275
g43
ag43
ag43
ag43
ag43
ag43
ag43
ag2
(g4
g6
(S'bind_C3A_C6pro_to_C3AC6pro_kf'
p276
tp277
Rp278
(dp279
g11
g12
(g13
g14
(dp280
g16
Nsg17
Nsg18
I01
sg19
Nstp281
Rp282
sbg6
(S's32'
p283
tp284
Rp285
(dp286
g11
g12
(g13
g14
(dp287
g18
I01
stp288
Rp289
sbtp290
Rp291
(dp292
bag43
ag43
ag43
ag43
ag43
ag43
ag43
ag43
ag43
ag43
ag43
ag43
ag43
ag43
ag43
ag43
ag43
ag43
ag43
ag43
ag43
ag43
ag43
ag43
ag2
(g4
g278
g6
(S's7'
p293
tp294
Rp295
(dp296
g11
g12
(g13
g14
(dp297
g18
I01
stp298
Rp299
sbtp300
Rp301
(dp302
bag43
ag43
ag6
(S'bind_C3A_C6pro_to_C3AC6pro_kr'
p303
tp304
Rp305
(dp306
g11
g12
(g13
g14
(dp307
g18
I01
stp308
Rp309
sbag43
ag43
ag43
ag43
ag43
ag43
ag43
ag43
ag43
ag43
ag43
ag43
ag43
ag43
ag43
ag43
ag43
ag43
ag43
ag43
ag43
ag43
ag43
ag43
ag43
ag43
ag43
ag43
ag43
ag43
ag43
ag43
ag43
ag43
ag43
ag43
ag43
ag43
aa(lp310
g43
ag43
ag43
ag43
ag43
ag43
ag43
ag43
ag2
(g4
g6
(S'convert_ApafA_C9_to_Apop_kf'
p311
tp312
Rp313
(dp314
g11
g12
(g13
g14
(dp315
g16
Nsg17
Nsg18
I01
sg19
Nstp316
Rp317
sbg6
(S's70'
p318
tp319
Rp320
(dp321
g11
g12
(g13
g14
(dp322
g18
I01
stp323
Rp324
sbtp325
Rp326
(dp327
bag43
ag43
ag43
ag43
ag43
ag43
ag43
ag43
ag43
ag43
ag43
ag43
ag43
ag43
ag43
ag43
ag43
ag43
ag43
ag43
ag43
ag43
ag43
ag43
ag43
ag43
ag43
ag43
ag43
ag43
ag43
ag43
ag43
ag43
ag43
ag43
ag43
ag43
ag43
ag43
ag43
ag43
ag43
ag43
ag43
ag43
ag43
ag43
ag43
ag43
ag43
ag43
ag43
ag43
ag43
ag43
ag43
ag43
ag43
ag43
ag43
ag2
(g4
g313
g6
(S's8'
p328
tp329
Rp330
(dp331
g11
g12
(g13
g14
(dp332
g18
I01
stp333
Rp334
sbtp335
Rp336
(dp337
bag6
(S'convert_ApafA_C9_to_Apop_kr'
p338
tp339
Rp340
(dp341
g11
g12
(g13
g14
(dp342
g18
I01
stp343
Rp344
sbag43
ag43
aa(lp345
g43
ag43
ag43
ag43
ag43
ag43
ag43
ag43
ag43
ag2
(g4
g6
(S'bind_C3A_PARPU_to_C3APARPU_kf'
p346
tp347
Rp348
(dp349
g11
g12
(g13
g14
(dp350
g16
Nsg17
Nsg18
I01
sg19
Nstp351
Rp352
sbg285
tp353
Rp354
(dp355
bag43
ag43
ag43
ag43
ag43
ag43
ag43
ag43
ag43
ag43
ag43
ag43
ag43
ag43
ag43
ag43
ag43
ag43
ag43
ag43
ag43
ag43
ag2
(g4
g348
g6
(S's9'
p356
tp357
Rp358
(dp359
g11
g12
(g13
g14
(dp360
g18
I01
stp361
Rp362
sbtp363
Rp364
(dp365
bag43
ag6
(S'bind_C3A_PARPU_to_C3APARPU_kr'
p366
tp367
Rp368
(dp369
g11
g12
(g13
g14
(dp370
g18
I01
stp371
Rp372
sbag43
ag43
ag43
ag43
ag43
ag43
ag43
ag43
ag43
ag43
ag43
ag43
ag43
ag43
ag43
ag43
ag43
ag43
ag43
ag43
ag43
ag43
ag43
ag43
ag43
ag43
ag43
ag43
ag43
ag43
ag43
ag43
ag43
ag43
ag43
ag43
ag43
ag43
ag43
aa(lp373
g43
ag43
ag43
ag43
ag43
ag43
ag43
ag43
ag43
ag43
ag89
(g2
(g4
g6
(S'bind_XIAP_C3A_to_XIAPC3A_kf'
p374
tp375
Rp376
(dp377
g11
g12
(g13
g14
(dp378
g16
Nsg17
Nsg18
I01
sg19
Nstp379
Rp380
sbg285
tp381
Rp382
(dp383
bg2
(g4
g6
(S'bind_Apop_XIAP_kf'
p384
tp385
Rp386
(dp387
g11
g12
(g13
g14
(dp388
g16
Nsg17
Nsg18
I01
sg19
Nstp389
Rp390
sbg237
tp391
Rp392
(dp393
bg2
(g4
g6
(S'bind_SmacA_XIAP_kf'
p394
tp395
Rp396
(dp397
g11
g12
(g13
g14
(dp398
g16
Nsg17
Nsg18
I01
sg19
Nstp399
Rp400
sbg6
(S's66'
p401
tp402
Rp403
(dp404
g11
g12
(g13
g14
(dp405
g16
Nsg17
Nsg18
I01
sg19
Nstp406
Rp407
sbtp408
Rp409
(dp410
btp411
Rp412
(dp413
bag43
ag43
ag43
ag43
ag43
ag43
ag43
ag43
ag43
ag43
ag43
ag43
ag43
ag43
ag43
ag43
ag43
ag43
ag43
ag43
ag43
ag2
(g4
g376
g6
(S's10'
p414
tp415
Rp416
(dp417
g11
g12
(g13
g14
(dp418
g18
I01
stp419
Rp420
sbtp421
Rp422
(dp423
bag89
(g6
(S'catalyze_XIAPC3A_to_XIAP_C3ub_kc'
p424
tp425
Rp426
(dp427
g11
g12
(g13
g14
(dp428
g18
I01
stp429
Rp430
sbg6
(S'bind_XIAP_C3A_to_XIAPC3A_kr'
p431
tp432
Rp433
(dp434
g11
g12
(g13
g14
(dp435
g18
I01
stp436
Rp437
sbtp438
Rp439
(dp440
bag43
ag43
ag43
ag43
ag43
ag43
ag43
ag43
ag43
ag43
ag43
ag43
ag43
ag43
ag43
ag43
ag43
ag43
ag43
ag43
ag43
ag43
ag43
ag43
ag43
ag43
ag43
ag43
ag43
ag43
ag43
ag43
ag2
(g4
g396
g416
tp441
Rp442
(dp443
bag43
ag43
ag6
(S'bind_SmacA_XIAP_kr'
p444
tp445
Rp446
(dp447
g11
g12
(g13
g14
(dp448
g18
I01
stp449
Rp450
sbag43
ag2
(g4
g386
g416
tp451
Rp452
(dp453
bag43
ag6
(S'bind_Apop_XIAP_kr'
p454
tp455
Rp456
(dp457
g11
g12
(g13
g14
(dp458
g18
I01
stp459
Rp460
sbaa(lp461
g43
ag43
ag43
ag43
ag43
ag43
ag43
ag43
ag43
ag43
ag43
ag2
(g4
g6
(S'bind_C8A_BidU_to_C8ABidU_kf'
p462
tp463
Rp464
(dp465
g11
g12
(g13
g14
(dp466
g16
Nsg17
Nsg18
I01
sg19
Nstp467
Rp468
sbg157
tp469
Rp470
(dp471
bag43
ag43
ag43
ag43
ag43
ag43
ag43
ag43
ag43
ag43
ag43
ag43
ag43
ag43
ag43
ag2
(g4
g464
g6
(S's11'
p472
tp473
Rp474
(dp475
g11
g12
(g13
g14
(dp476
g18
I01
stp477
Rp478
sbtp479
Rp480
(dp481
bag6
(S'bind_C8A_BidU_to_C8ABidU_kr'
p482
tp483
Rp484
(dp485
g11
g12
(g13
g14
(dp486
g18
I01
stp487
Rp488
sbag43
ag43
ag43
ag43
ag43
ag43
ag43
ag43
ag43
ag43
ag43
ag43
ag43
ag43
ag43
ag43
ag43
ag43
ag43
ag43
ag43
ag43
ag43
ag43
ag43
ag43
ag43
ag43
ag43
ag43
ag43
ag43
ag43
ag43
ag43
ag43
ag43
ag43
ag43
ag43
ag43
ag43
ag43
ag43
ag43
aa(lp489
g43
ag43
ag43
ag43
ag43
ag43
ag43
ag43
ag43
ag43
ag43
ag43
ag43
ag43
ag43
ag43
ag43
ag43
ag43
ag43
ag43
ag43
ag43
ag43
ag43
ag43
ag43
ag43
ag43
ag43
ag43
ag43
ag43
ag43
ag43
ag43
ag43
ag43
ag43
ag43
ag43
ag43
ag43
ag43
ag43
ag43
ag43
ag43
ag43
ag43
ag43
ag43
ag43
ag43
ag43
ag43
ag43
ag43
ag43
ag43
ag43
ag43
ag43
ag43
ag43
ag43
ag43
ag43
ag43
ag43
ag43
ag43
ag43
ag43
aa(lp490
g43
ag43
ag43
ag43
ag43
ag43
ag43
ag43
ag43
ag43
ag43
ag43
ag43
ag2
(g4
g6
(S'equilibrate_BaxC_to_BaxM_kf'
p491
tp492
Rp493
(dp494
g11
g12
(g13
g14
(dp495
g18
I01
stp496
Rp497
sbtp498
Rp499
(dp500
bag43
ag43
ag43
ag43
ag43
ag43
ag43
ag43
ag6
(S'equilibrate_BaxC_to_BaxM_kr'
p501
tp502
Rp503
(dp504
g11
g12
(g13
g14
(dp505
g18
I01
stp506
Rp507
sbag43
ag43
ag43
ag43
ag43
ag43
ag43
ag43
ag43
ag43
ag43
ag43
ag43
ag43
ag43
ag43
ag43
ag43
ag43
ag43
ag43
ag43
ag43
ag43
ag43
ag43
ag43
ag43
ag43
ag43
ag43
ag43
ag43
ag43
ag43
ag43
ag43
ag43
ag43
ag43
ag43
ag43
ag43
ag43
ag43
ag43
ag43
ag43
ag43
ag43
ag43
aa(lp508
g43
ag43
ag43
ag43
ag43
ag43
ag43
ag43
ag43
ag43
ag43
ag43
ag43
ag43
ag89
(g2
(g4
g6
(S'bind_BidM_BakM_to_BidMBakM_kf'
p509
tp510
Rp511
(dp512
g11
g12
(g13
g14
(dp513
g16
Nsg17
Nsg18
I01
sg19
Nstp514
Rp515
sbg6
(S's36'
p516
tp517
Rp518
(dp519
g11
g12
(g13
g14
(dp520
g16
Nsg17
Nsg18
I01
sg19
Nstp521
Rp522
sbtp523
Rp524
(dp525
bg2
(g4
g6
(S'bind_BakA_BakM_to_BakABakM_kf'
p526
tp527
Rp528
(dp529
g11
g12
(g13
g14
(dp530
g16
Nsg17
Nsg18
I01
sg19
Nstp531
Rp532
sbg6
(S's47'
p533
tp534
Rp535
(dp536
g11
g12
(g13
g14
(dp537
S'real'
p538
NsS'even'
p539
Nsg18
I01
sS'nonpositive'
p540
Nsg16
Nsg19
NsS'nonnegative'
p541
Nsg17
NsS'rational'
p542
NsS'integer'
p543
NsS'odd'
p544
Nstp545
Rp546
sbtp547
Rp548
(dp549
btp550
Rp551
(dp552
bag43
ag43
ag43
ag43
ag43
ag43
ag43
ag43
ag43
ag43
ag43
ag43
ag43
ag43
ag43
ag43
ag43
ag43
ag43
ag43
ag43
ag2
(g4
g511
g6
(S's14'
p553
tp554
Rp555
(dp556
g11
g12
(g13
g14
(dp557
g18
I01
stp558
Rp559
sbtp560
Rp561
(dp562
bag43
ag43
ag43
ag43
ag6
(S'bind_BidM_BakM_to_BidMBakM_kr'
p563
tp564
Rp565
(dp566
g11
g12
(g13
g14
(dp567
g18
I01
stp568
Rp569
sbag43
ag43
ag43
ag43
ag43
ag2
(g4
g528
g555
tp570
Rp571
(dp572
bag43
ag6
(S'bind_BakA_BakM_to_BakABakM_kr'
p573
tp574
Rp575
(dp576
g11
g12
(g13
g14
(dp577
g18
I01
stp578
Rp579
sbag43
ag43
ag43
ag43
ag43
ag43
ag43
ag43
ag43
ag43
ag43
ag43
ag43
ag43
ag43
ag43
ag43
ag43
ag43
ag43
ag43
ag43
ag43
ag43
aa(lp580
g43
ag43
ag43
ag43
ag43
ag43
ag43
ag43
ag43
ag43
ag43
ag43
ag43
ag43
ag43
ag89
(g2
(g4
g6
(S'bind_BidM_Bcl2_kf'
p581
tp582
Rp583
(dp584
g11
g12
(g13
g14
(dp585
g16
Nsg17
Nsg18
I01
sg19
Nstp586
Rp587
sbg518
tp588
Rp589
(dp590
bg2
(g4
g6
(S'bind_BaxA_Bcl2_kf'
p591
tp592
Rp593
(dp594
g11
g12
(g13
g14
(dp595
g16
Nsg17
Nsg18
I01
sg19
Nstp596
Rp597
sbg6
(S's46'
p598
tp599
Rp600
(dp601
g11
g12
(g13
g14
(dp602
g538
Nsg539
Nsg18
I01
sg540
Nsg16
Nsg19
Nsg541
Nsg17
Nsg542
Nsg543
Nsg544
Nstp603
Rp604
sbtp605
Rp606
(dp607
btp608
Rp609
(dp610
bag43
ag43
ag43
ag43
ag43
ag43
ag43
ag43
ag43
ag43
ag43
ag43
ag43
ag43
ag43
ag43
ag43
ag43
ag43
ag43
ag2
(g4
g583
g6
(S's15'
p611
tp612
Rp613
(dp614
g11
g12
(g13
g14
(dp615
g18
I01
stp616
Rp617
sbtp618
Rp619
(dp620
bag43
ag43
ag43
ag43
ag43
ag6
(S'bind_BidM_Bcl2_kr'
p621
tp622
Rp623
(dp624
g11
g12
(g13
g14
(dp625
g18
I01
stp626
Rp627
sbag43
ag43
ag43
ag2
(g4
g593
g613
tp628
Rp629
(dp630
bag43
ag43
ag43
ag6
(S'bind_BaxA_Bcl2_kr'
p631
tp632
Rp633
(dp634
g11
g12
(g13
g14
(dp635
g18
I01
stp636
Rp637
sbag43
ag43
ag43
ag43
ag43
ag43
ag43
ag43
ag43
ag43
ag43
ag43
ag43
ag43
ag43
ag43
ag43
ag43
ag43
ag43
ag43
ag43
ag43
aa(lp638
g43
ag43
ag43
ag43
ag43
ag43
ag43
ag43
ag43
ag43
ag43
ag43
ag43
ag43
ag43
ag43
ag2
(g4
g6
(S'equilibrate_BclxLC_to_BclxLM_kf'
p639
tp640
Rp641
(dp642
g11
g12
(g13
g14
(dp643
g18
I01
stp644
Rp645
sbtp646
Rp647
(dp648
bag43
ag43
ag43
ag43
ag43
ag43
ag6
(S'equilibrate_BclxLC_to_BclxLM_kr'
p649
tp650
Rp651
(dp652
g11
g12
(g13
g14
(dp653
g18
I01
stp654
Rp655
sbag43
ag43
ag43
ag43
ag43
ag43
ag43
ag43
ag43
ag43
ag43
ag43
ag43
ag43
ag43
ag43
ag43
ag43
ag43
ag43
ag43
ag43
ag43
ag43
ag43
ag43
ag43
ag43
ag43
ag43
ag43
ag43
ag43
ag43
ag43
ag43
ag43
ag43
ag43
ag43
ag43
ag43
ag43
ag43
ag43
ag43
ag43
ag43
ag43
ag43
aa(lp656
g43
ag43
ag43
ag43
ag43
ag43
ag43
ag43
ag43
ag43
ag43
ag43
ag43
ag43
ag43
ag43
ag43
ag89
(g2
(g4
g6
(S'bind_BidM_Mcl1M_kf'
p657
tp658
Rp659
(dp660
g11
g12
(g13
g14
(dp661
g16
Nsg17
Nsg18
I01
sg19
Nstp662
Rp663
sbg518
tp664
Rp665
(dp666
bg2
(g4
g6
(S'bind_BakA_Mcl1_kf'
p667
tp668
Rp669
(dp670
g11
g12
(g13
g14
(dp671
g16
Nsg17
Nsg18
I01
sg19
Nstp672
Rp673
sbg535
tp674
Rp675
(dp676
btp677
Rp678
(dp679
bag43
ag43
ag43
ag43
ag43
ag43
ag43
ag43
ag43
ag43
ag43
ag43
ag43
ag43
ag43
ag43
ag43
ag43
ag2
(g4
g659
g6
(S's17'
p680
tp681
Rp682
(dp683
g11
g12
(g13
g14
(dp684
g18
I01
stp685
Rp686
sbtp687
Rp688
(dp689
bag43
ag43
ag43
ag43
ag43
ag43
ag43
ag6
(S'bind_BidM_Mcl1M_kr'
p690
tp691
Rp692
(dp693
g11
g12
(g13
g14
(dp694
g18
I01
stp695
Rp696
sbag43
ag43
ag2
(g4
g669
g682
tp697
Rp698
(dp699
bag43
ag43
ag43
ag43
ag43
ag6
(S'bind_BakA_Mcl1_kr'
p700
tp701
Rp702
(dp703
g11
g12
(g13
g14
(dp704
g18
I01
stp705
Rp706
sbag43
ag43
ag43
ag43
ag43
ag43
ag43
ag43
ag43
ag43
ag43
ag43
ag43
ag43
ag43
ag43
ag43
ag43
ag43
ag43
aa(lp707
g43
ag43
ag43
ag43
ag43
ag43
ag43
ag43
ag43
ag43
ag43
ag43
ag43
ag43
ag43
ag43
ag43
ag43
ag43
ag43
ag43
ag43
ag43
ag43
ag43
ag43
ag43
ag43
ag43
ag43
ag43
ag43
ag43
ag43
ag43
ag43
ag43
ag43
ag43
ag43
ag43
ag43
ag43
ag43
ag43
ag43
ag43
ag43
ag43
ag43
ag43
ag43
ag43
ag43
ag43
ag43
ag43
ag43
ag43
ag43
ag43
ag43
ag43
ag43
ag43
ag43
ag43
ag43
ag43
ag43
ag43
ag43
ag43
ag43
aa(lp708
g43
ag43
ag43
ag43
ag43
ag43
ag43
ag43
ag43
ag43
ag43
ag43
ag43
ag43
ag43
ag43
ag43
ag43
ag43
ag89
(g2
(g4
g6
(S'pore_transport_complex_BakA_4_CytoCM_kf'
p709
tp710
Rp711
(dp712
g11
g12
(g13
g14
(dp713
g16
Nsg17
Nsg18
I01
sg19
Nstp714
Rp715
sbg6
(S's59'
p716
tp717
Rp718
(dp719
g11
g12
(g13
g14
(dp720
g16
Nsg17
Nsg18
I01
sg19
Nstp721
Rp722
sbtp723
Rp724
(dp725
bg2
(g4
g6
(S'pore_transport_complex_BaxA_4_CytoCM_kf'
p726
tp727
Rp728
(dp729
g11
g12
(g13
g14
(dp730
g16
Nsg17
Nsg18
I01
sg19
Nstp731
Rp732
sbg6
(S's58'
p733
tp734
Rp735
(dp736
g11
g12
(g13
g14
(dp737
g16
Nsg17
Nsg18
I01
sg19
Nstp738
Rp739
sbtp740
Rp741
(dp742
btp743
Rp744
(dp745
bag43
ag43
ag43
ag43
ag43
ag43
ag43
ag43
ag43
ag43
ag43
ag43
ag43
ag43
ag43
ag43
ag43
ag43
ag43
ag43
ag43
ag43
ag43
ag43
ag43
ag43
ag43
ag43
ag43
ag43
ag43
ag43
ag43
ag43
ag43
ag43
ag43
ag43
ag2
(g4
g728
g6
(S's19'
p746
tp747
Rp748
(dp749
g11
g12
(g13
g14
(dp750
g18
I01
stp751
Rp752
sbtp753
Rp754
(dp755
bag2
(g4
g711
g748
tp756
Rp757
(dp758
bag6
(S'pore_transport_complex_BaxA_4_CytoCM_kr'
p759
tp760
Rp761
(dp762
g11
g12
(g13
g14
(dp763
g18
I01
stp764
Rp765
sbag43
ag6
(S'pore_transport_complex_BakA_4_CytoCM_kr'
p766
tp767
Rp768
(dp769
g11
g12
(g13
g14
(dp770
g18
I01
stp771
Rp772
sbag43
ag43
ag43
ag43
ag43
ag43
ag43
ag43
ag43
ag43
ag43
aa(lp773
g43
ag43
ag43
ag43
ag43
ag43
ag43
ag43
ag43
ag43
ag43
ag43
ag43
ag43
ag43
ag43
ag43
ag43
ag43
ag43
ag89
(g2
(g4
g6
(S'pore_transport_complex_BaxA_4_SmacM_kf'
p774
tp775
Rp776
(dp777
g11
g12
(g13
g14
(dp778
g16
Nsg17
Nsg18
I01
sg19
Nstp779
Rp780
sbg735
tp781
Rp782
(dp783
bg2
(g4
g6
(S'pore_transport_complex_BakA_4_SmacM_kf'
p784
tp785
Rp786
(dp787
g11
g12
(g13
g14
(dp788
g16
Nsg17
Nsg18
I01
sg19
Nstp789
Rp790
sbg718
tp791
Rp792
(dp793
btp794
Rp795
(dp796
bag43
ag43
ag43
ag43
ag43
ag43
ag43
ag43
ag43
ag43
ag43
ag43
ag43
ag43
ag43
ag43
ag43
ag43
ag43
ag43
ag43
ag43
ag43
ag43
ag43
ag43
ag43
ag43
ag43
ag43
ag43
ag43
ag43
ag43
ag43
ag43
ag43
ag2
(g4
g776
g6
(S's20'
p797
tp798
Rp799
(dp800
g11
g12
(g13
g14
(dp801
g18
I01
stp802
Rp803
sbtp804
Rp805
(dp806
bag2
(g4
g786
g799
tp807
Rp808
(dp809
bag43
ag6
(S'pore_transport_complex_BaxA_4_SmacM_kr'
p810
tp811
Rp812
(dp813
g11
g12
(g13
g14
(dp814
g18
I01
stp815
Rp816
sbag43
ag6
(S'pore_transport_complex_BakA_4_SmacM_kr'
p817
tp818
Rp819
(dp820
g11
g12
(g13
g14
(dp821
g18
I01
stp822
Rp823
sbag43
ag43
ag43
ag43
ag43
ag43
ag43
ag43
ag43
ag43
aa(lp824
g2
(g9
g24
tp825
Rp826
(dp827
bag2
(g9
g34
tp828
Rp829
(dp830
bag43
ag43
ag43
ag43
ag43
ag43
ag43
ag43
ag43
ag43
ag43
ag43
ag43
ag43
ag43
ag43
ag43
ag43
ag43
ag89
(g2
(g4
g6
(S'convert_LR_to_DISC_kc'
p831
tp832
Rp833
(dp834
g11
g12
(g13
g14
(dp835
g18
I01
stp836
Rp837
sbtp838
Rp839
(dp840
bg2
(g4
g47
tp841
Rp842
(dp843
btp844
Rp845
(dp846
bag43
ag43
ag43
ag43
ag43
ag43
ag43
ag43
ag43
ag43
ag43
ag43
ag43
ag43
ag43
ag43
ag43
ag43
ag43
ag43
ag43
ag43
ag43
ag43
ag43
ag43
ag43
ag43
ag43
ag43
ag43
ag43
ag43
ag43
ag43
ag43
ag43
ag43
ag43
ag43
ag43
ag43
ag43
ag43
ag43
ag43
ag43
ag43
ag43
ag43
ag43
ag43
aa(lp847
g43
ag43
ag43
ag43
ag43
ag43
ag43
ag43
ag43
ag43
ag43
ag43
ag43
ag493
ag43
ag43
ag43
ag43
ag43
ag43
ag43
ag43
ag89
(g2
(g4
g503
tp848
Rp849
(dp850
bg2
(g4
g6
(S'bind_BidM_BaxM_to_BidMBaxM_kf'
p851
tp852
Rp853
(dp854
g11
g12
(g13
g14
(dp855
g16
Nsg17
Nsg18
I01
sg19
Nstp856
Rp857
sbg518
tp858
Rp859
(dp860
bg2
(g4
g6
(S'bind_BaxA_BaxM_to_BaxABaxM_kf'
p861
tp862
Rp863
(dp864
g11
g12
(g13
g14
(dp865
g16
Nsg17
Nsg18
I01
sg19
Nstp866
Rp867
sbg600
tp868
Rp869
(dp870
btp871
Rp872
(dp873
bag43
ag43
ag43
ag43
ag43
ag43
ag43
ag43
ag43
ag43
ag43
ag43
ag43
ag2
(g4
g853
g6
(S's22'
p874
tp875
Rp876
(dp877
g11
g12
(g13
g14
(dp878
g16
Nsg17
Nsg18
I01
sg19
Nstp879
Rp880
sbtp881
Rp882
(dp883
bag43
ag43
ag43
ag6
(S'bind_BidM_BaxM_to_BidMBaxM_kr'
p884
tp885
Rp886
(dp887
g11
g12
(g13
g14
(dp888
g18
I01
stp889
Rp890
sbag43
ag43
ag43
ag43
ag43
ag2
(g4
g863
g876
tp891
Rp892
(dp893
bag43
ag6
(S'bind_BaxA_BaxM_to_BaxABaxM_kr'
p894
tp895
Rp896
(dp897
g11
g12
(g13
g14
(dp898
g18
I01
stp899
Rp900
sbag43
ag43
ag43
ag43
ag43
ag43
ag43
ag43
ag43
ag43
ag43
ag43
ag43
ag43
ag43
ag43
ag43
ag43
ag43
ag43
ag43
ag43
ag43
ag43
ag43
aa(lp901
g43
ag43
ag43
ag43
ag43
ag43
ag43
ag43
ag43
ag43
ag43
ag43
ag43
ag43
ag43
ag43
ag641
ag43
ag43
ag43
ag43
ag43
ag43
ag89
(g2
(g4
g6
(S'bind_BidM_BclxLM_kf'
p902
tp903
Rp904
(dp905
g11
g12
(g13
g14
(dp906
g16
Nsg17
Nsg18
I01
sg19
Nstp907
Rp908
sbg518
tp909
Rp910
(dp911
bg2
(g4
g6
(S'bind_BaxA_BclxLM_kf'
p912
tp913
Rp914
(dp915
g11
g12
(g13
g14
(dp916
g16
Nsg17
Nsg18
I01
sg19
Nstp917
Rp918
sbg600
tp919
Rp920
(dp921
bg2
(g4
g6
(S'bind_BakA_BclxLM_kf'
p922
tp923
Rp924
(dp925
g11
g12
(g13
g14
(dp926
g16
Nsg17
Nsg18
I01
sg19
Nstp927
Rp928
sbg535
tp929
Rp930
(dp931
bg2
(g4
g651
tp932
Rp933
(dp934
btp935
Rp936
(dp937
bag43
ag43
ag43
ag43
ag43
ag43
ag43
ag43
ag43
ag43
ag43
ag43
ag2
(g4
g904
g6
(S's23'
p938
tp939
Rp940
(dp941
g11
g12
(g13
g14
(dp942
g16
Nsg17
Nsg18
I01
sg19
Nstp943
Rp944
sbtp945
Rp946
(dp947
bag43
ag43
ag43
ag43
ag43
ag43
ag6
(S'bind_BidM_BclxLM_kr'
p948
tp949
Rp950
(dp951
g11
g12
(g13
g14
(dp952
g18
I01
stp953
Rp954
sbag43
ag43
ag2
(g4
g914
g940
tp955
Rp956
(dp957
bag2
(g4
g924
g940
tp958
Rp959
(dp960
bag43
ag43
ag43
ag6
(S'bind_BaxA_BclxLM_kr'
p961
tp962
Rp963
(dp964
g11
g12
(g13
g14
(dp965
g18
I01
stp966
Rp967
sbag6
(S'bind_BakA_BclxLM_kr'
p968
tp969
Rp970
(dp971
g11
g12
(g13
g14
(dp972
g18
I01
stp973
Rp974
sbag43
ag43
ag43
ag43
ag43
ag43
ag43
ag43
ag43
ag43
ag43
ag43
ag43
ag43
ag43
ag43
ag43
ag43
ag43
ag43
ag43
aa(lp975
g43
ag43
ag69
ag2
(g4
g109
g63
tp976
Rp977
(dp978
bag43
ag43
ag43
ag43
ag43
ag43
ag43
ag43
ag43
ag43
ag43
ag43
ag43
ag43
ag43
ag43
ag43
ag833
ag43
ag43
ag89
(g2
(g4
g56
g73
tp979
Rp980
(dp981
bg2
(g4
g109
g122
tp982
Rp983
(dp984
btp985
Rp986
(dp987
bag89
(g6
(S'catalyze_DISCC8pro_to_DISC_C8A_kc'
p988
tp989
Rp990
(dp991
g11
g12
(g13
g14
(dp992
g18
I01
stp993
Rp994
sbg132
tp995
Rp996
(dp997
bag83
ag43
ag43
ag43
ag43
ag43
ag43
ag43
ag43
ag43
ag43
ag43
ag43
ag43
ag43
ag43
ag43
ag43
ag43
ag43
ag43
ag43
ag43
ag43
ag43
ag43
ag43
ag43
ag43
ag43
ag43
ag43
ag43
ag43
ag43
ag43
ag43
ag43
ag43
ag43
ag43
ag43
ag43
ag43
ag43
ag43
ag43
ag43
aa(lp998
g43
ag43
ag43
ag2
(g109
g63
tp999
Rp1000
(dp1001
bag43
ag43
ag43
ag43
ag43
ag43
ag43
ag43
ag43
ag43
ag43
ag43
ag43
ag43
ag43
ag43
ag43
ag43
ag43
ag43
ag2
(g109
g122
tp1002
Rp1003
(dp1004
bag89
(g2
(g4
g990
tp1005
Rp1006
(dp1007
bg2
(g4
g132
tp1008
Rp1009
(dp1010
btp1011
Rp1012
(dp1013
bag43
ag43
ag43
ag43
ag43
ag43
ag43
ag43
ag43
ag43
ag43
ag43
ag43
ag43
ag43
ag43
ag43
ag43
ag43
ag43
ag43
ag43
ag43
ag43
ag43
ag43
ag43
ag43
ag43
ag43
ag43
ag43
ag43
ag43
ag43
ag43
ag43
ag43
ag43
ag43
ag43
ag43
ag43
ag43
ag43
ag43
ag43
ag43
aa(lp1014
g43
ag43
ag2
(g56
g63
tp1015
Rp1016
(dp1017
bag43
ag43
ag43
ag43
ag43
ag43
ag43
ag43
ag43
ag43
ag43
ag43
ag43
ag43
ag43
ag43
ag43
ag43
ag43
ag43
ag43
ag2
(g56
g73
tp1018
Rp1019
(dp1020
bag43
ag2
(g4
g83
tp1021
Rp1022
(dp1023
bag43
ag43
ag43
ag43
ag43
ag43
ag43
ag43
ag43
ag43
ag43
ag43
ag43
ag43
ag43
ag43
ag43
ag43
ag43
ag43
ag43
ag43
ag43
ag43
ag43
ag43
ag43
ag43
ag43
ag43
ag43
ag43
ag43
ag43
ag43
ag43
ag43
ag43
ag43
ag43
ag43
ag43
ag43
ag43
ag43
ag43
ag43
aa(lp1024
g43
ag43
ag43
ag43
ag163
ag43
ag2
(g4
g220
g157
tp1025
Rp1026
(dp1027
bag43
ag43
ag43
ag43
ag470
ag43
ag43
ag43
ag43
ag43
ag43
ag43
ag43
ag43
ag43
ag43
ag43
ag43
ag990
ag43
ag89
(g2
(g4
g220
g250
tp1028
Rp1029
(dp1030
bg2
(g4
g464
g474
tp1031
Rp1032
(dp1033
bg2
(g4
g150
g167
tp1034
Rp1035
(dp1036
btp1037
Rp1038
(dp1039
bag89
(g6
(S'catalyze_C8ABidU_to_C8A_BidT_kc'
p1040
tp1041
Rp1042
(dp1043
g11
g12
(g13
g14
(dp1044
g18
I01
stp1045
Rp1046
sbg484
tp1047
Rp1048
(dp1049
bag177
ag89
(g260
g6
(S'catalyze_C8AC3pro_to_C8A_C3A_kc'
p1050
tp1051
Rp1052
(dp1053
g11
g12
(g13
g14
(dp1054
g18
I01
stp1055
Rp1056
sbtp1057
Rp1058
(dp1059
bag43
ag43
ag43
ag43
ag43
ag43
ag43
ag43
ag43
ag43
ag43
ag43
ag43
ag43
ag6
(S'catalyze_C6AC8pro_to_C6A_C8A_kc'
p1060
tp1061
Rp1062
(dp1063
g11
g12
(g13
g14
(dp1064
g18
I01
stp1065
Rp1066
sbag43
ag43
ag43
ag43
ag43
ag43
ag43
ag43
ag43
ag43
ag43
ag43
ag43
ag43
ag43
ag43
ag43
ag43
ag43
ag43
ag43
ag43
ag43
ag43
ag43
ag43
ag43
ag43
aa(lp1067
g43
ag43
ag43
ag43
ag43
ag43
ag43
ag43
ag43
ag43
ag43
ag2
(g464
g157
tp1068
Rp1069
(dp1070
bag43
ag43
ag43
ag43
ag43
ag43
ag43
ag43
ag43
ag43
ag43
ag43
ag43
ag43
ag43
ag2
(g464
g474
tp1071
Rp1072
(dp1073
bag89
(g2
(g4
g1042
tp1074
Rp1075
(dp1076
bg2
(g4
g484
tp1077
Rp1078
(dp1079
btp1080
Rp1081
(dp1082
bag43
ag43
ag43
ag43
ag43
ag43
ag43
ag43
ag43
ag43
ag43
ag43
ag43
ag43
ag43
ag43
ag43
ag43
ag43
ag43
ag43
ag43
ag43
ag43
ag43
ag43
ag43
ag43
ag43
ag43
ag43
ag43
ag43
ag43
ag43
ag43
ag43
ag43
ag43
ag43
ag43
ag43
ag43
ag43
ag43
aa(lp1083
g43
ag43
ag43
ag43
ag2
(g150
g157
tp1084
Rp1085
(dp1086
bag43
ag43
ag43
ag43
ag43
ag43
ag43
ag43
ag43
ag43
ag43
ag43
ag43
ag43
ag43
ag43
ag43
ag43
ag43
ag43
ag43
ag43
ag2
(g150
g167
tp1087
Rp1088
(dp1089
bag43
ag2
(g4
g177
tp1090
Rp1091
(dp1092
bag43
ag43
ag43
ag43
ag43
ag43
ag43
ag43
ag43
ag43
ag43
ag43
ag43
ag43
ag43
ag43
ag43
ag43
ag43
ag43
ag43
ag43
ag43
ag43
ag43
ag43
ag43
ag43
ag43
ag43
ag43
ag43
ag43
ag43
ag43
ag43
ag43
ag43
ag43
ag43
ag43
ag43
ag43
ag43
aa(lp1093
g43
ag43
ag43
ag43
ag43
ag43
ag2
(g220
g157
tp1094
Rp1095
(dp1096
bag43
ag43
ag43
ag43
ag43
ag43
ag43
ag43
ag43
ag43
ag43
ag43
ag43
ag43
ag43
ag43
ag43
ag43
ag43
ag43
ag2
(g220
g250
tp1097
Rp1098
(dp1099
bag43
ag43
ag89
(g2
(g4
g260
tp1100
Rp1101
(dp1102
bg2
(g4
g1052
tp1103
Rp1104
(dp1105
btp1106
Rp1107
(dp1108
bag43
ag43
ag43
ag43
ag43
ag43
ag43
ag43
ag43
ag43
ag43
ag43
ag43
ag43
ag43
ag43
ag43
ag43
ag43
ag43
ag43
ag43
ag43
ag43
ag43
ag43
ag43
ag43
ag43
ag43
ag43
ag43
ag43
ag43
ag43
ag43
ag43
ag43
ag43
ag43
ag43
ag43
ag43
aa(lp1109
g43
ag43
ag43
ag43
ag43
ag43
ag43
ag43
ag43
ag43
ag43
ag43
ag43
ag43
ag43
ag43
ag43
ag43
ag43
ag43
ag43
ag43
ag43
ag43
ag43
ag43
ag43
ag43
ag1042
ag43
ag43
ag2
(g4
g6
(S'equilibrate_BidT_to_BidM_kf'
p1110
tp1111
Rp1112
(dp1113
g11
g12
(g13
g14
(dp1114
g18
I01
stp1115
Rp1116
sbtp1117
Rp1118
(dp1119
bag43
ag43
ag43
ag43
ag6
(S'equilibrate_BidT_to_BidM_kr'
p1120
tp1121
Rp1122
(dp1123
g11
g12
(g13
g14
(dp1124
g18
I01
stp1125
Rp1126
sbag43
ag43
ag43
ag43
ag43
ag43
ag43
ag43
ag43
ag43
ag43
ag43
ag43
ag43
ag43
ag43
ag43
ag43
ag43
ag43
ag43
ag43
ag43
ag43
ag43
ag43
ag43
ag43
ag43
ag43
ag43
ag43
ag43
ag43
ag43
ag43
ag43
aa(lp1127
g43
ag43
ag43
ag43
ag43
ag43
ag43
ag291
ag43
ag354
ag2
(g4
g376
g285
tp1128
Rp1129
(dp1130
bag43
ag43
ag43
ag43
ag43
ag43
ag43
ag43
ag43
ag43
ag43
ag43
ag43
ag43
ag43
ag43
ag43
ag43
ag43
ag1052
ag43
ag89
(g2
(g4
g348
g358
tp1131
Rp1132
(dp1133
bg2
(g4
g278
g295
tp1134
Rp1135
(dp1136
bg2
(g4
g376
g416
tp1137
Rp1138
(dp1139
btp1140
Rp1141
(dp1142
bag433
ag89
(g6
(S'catalyze_C3APARPU_to_C3A_PARPC_kc'
p1143
tp1144
Rp1145
(dp1146
g11
g12
(g13
g14
(dp1147
g18
I01
stp1148
Rp1149
sbg368
tp1150
Rp1151
(dp1152
bag89
(g305
g6
(S'catalyze_C3AC6pro_to_C3A_C6A_kc'
p1153
tp1154
Rp1155
(dp1156
g11
g12
(g13
g14
(dp1157
g18
I01
stp1158
Rp1159
sbtp1160
Rp1161
(dp1162
bag43
ag43
ag43
ag43
ag43
ag43
ag43
ag43
ag43
ag43
ag43
ag43
ag43
ag43
ag43
ag43
ag43
ag43
ag43
ag43
ag43
ag43
ag43
ag43
ag43
ag43
ag43
ag43
ag43
ag43
ag43
ag43
ag43
ag43
ag43
ag43
ag6
(S'catalyze_ApopC3pro_to_Apop_C3A_kc'
p1163
tp1164
Rp1165
(dp1166
g11
g12
(g13
g14
(dp1167
g18
I01
stp1168
Rp1169
sbag43
aa(lp1170
g43
ag43
ag43
ag43
ag43
ag43
ag43
ag43
ag43
ag43
ag2
(g376
g285
tp1171
Rp1172
(dp1173
bag43
ag43
ag43
ag43
ag43
ag43
ag43
ag43
ag43
ag43
ag43
ag43
ag43
ag43
ag43
ag43
ag43
ag43
ag43
ag43
ag43
ag2
(g376
g416
tp1174
Rp1175
(dp1176
bag89
(g2
(g4
g426
tp1177
Rp1178
(dp1179
bg2
(g4
g433
tp1180
Rp1181
(dp1182
btp1183
Rp1184
(dp1185
bag43
ag43
ag43
ag43
ag43
ag43
ag43
ag43
ag43
ag43
ag43
ag43
ag43
ag43
ag43
ag43
ag43
ag43
ag43
ag43
ag43
ag43
ag43
ag43
ag43
ag43
ag43
ag43
ag43
ag43
ag43
ag43
ag43
ag43
ag43
ag43
ag43
ag43
ag43
ag43
aa(lp1186
g43
ag43
ag43
ag43
ag43
ag43
ag43
ag43
ag43
ag2
(g348
g285
tp1187
Rp1188
(dp1189
bag43
ag43
ag43
ag43
ag43
ag43
ag43
ag43
ag43
ag43
ag43
ag43
ag43
ag43
ag43
ag43
ag43
ag43
ag43
ag43
ag43
ag43
ag2
(g348
g358
tp1190
Rp1191
(dp1192
bag43
ag89
(g2
(g4
g368
tp1193
Rp1194
(dp1195
bg2
(g4
g1145
tp1196
Rp1197
(dp1198
btp1199
Rp1200
(dp1201
bag43
ag43
ag43
ag43
ag43
ag43
ag43
ag43
ag43
ag43
ag43
ag43
ag43
ag43
ag43
ag43
ag43
ag43
ag43
ag43
ag43
ag43
ag43
ag43
ag43
ag43
ag43
ag43
ag43
ag43
ag43
ag43
ag43
ag43
ag43
ag43
ag43
ag43
ag43
aa(lp1202
g43
ag43
ag43
ag43
ag43
ag43
ag43
ag2
(g278
g285
tp1203
Rp1204
(dp1205
bag43
ag43
ag43
ag43
ag43
ag43
ag43
ag43
ag43
ag43
ag43
ag43
ag43
ag43
ag43
ag43
ag43
ag43
ag43
ag43
ag43
ag43
ag43
ag43
ag2
(g278
g295
tp1206
Rp1207
(dp1208
bag43
ag43
ag89
(g2
(g4
g305
tp1209
Rp1210
(dp1211
bg2
(g4
g1155
tp1212
Rp1213
(dp1214
btp1215
Rp1216
(dp1217
bag43
ag43
ag43
ag43
ag43
ag43
ag43
ag43
ag43
ag43
ag43
ag43
ag43
ag43
ag43
ag43
ag43
ag43
ag43
ag43
ag43
ag43
ag43
ag43
ag43
ag43
ag43
ag43
ag43
ag43
ag43
ag43
ag43
ag43
ag43
ag43
ag43
ag43
aa(lp1218
g43
ag43
ag43
ag43
ag43
ag43
ag43
ag43
ag43
ag43
ag43
ag43
ag43
ag43
ag2
(g4
g511
g518
tp1219
Rp1220
(dp1221
bag2
(g4
g583
g518
tp1222
Rp1223
(dp1224
bag43
ag2
(g4
g659
g518
tp1225
Rp1226
(dp1227
bag43
ag43
ag43
ag43
ag2
(g4
g853
g518
tp1228
Rp1229
(dp1230
bag2
(g4
g904
g518
tp1231
Rp1232
(dp1233
bag43
ag43
ag43
ag43
ag43
ag43
ag43
ag1112
ag43
ag43
ag43
ag43
ag89
(g2
(g4
g853
g876
tp1234
Rp1235
(dp1236
bg2
(g4
g583
g613
tp1237
Rp1238
(dp1239
bg2
(g4
g659
g682
tp1240
Rp1241
(dp1242
bg2
(g4
g904
g940
tp1243
Rp1244
(dp1245
bg2
(g4
g511
g555
tp1246
Rp1247
(dp1248
bg2
(g4
g1122
tp1249
Rp1250
(dp1251
btp1252
Rp1253
(dp1254
bag43
ag43
ag43
ag89
(g6
(S'catalyze_BidMBaxM_to_BidM_BaxA_kc'
p1255
tp1256
Rp1257
(dp1258
g11
g12
(g13
g14
(dp1259
g18
I01
stp1260
Rp1261
sbg886
tp1262
Rp1263
(dp1264
bag89
(g565
g6
(S'catalyze_BidMBakM_to_BidM_BakA_kc'
p1265
tp1266
Rp1267
(dp1268
g11
g12
(g13
g14
(dp1269
g18
I01
stp1270
Rp1271
sbtp1272
Rp1273
(dp1274
bag623
ag950
ag692
ag43
ag43
ag43
ag43
ag43
ag43
ag43
ag43
ag43
ag43
ag43
ag43
ag43
ag43
ag43
ag43
ag43
ag43
ag43
ag43
ag43
ag43
ag43
ag43
ag43
ag43
ag43
ag43
ag43
aa(lp1275
g43
ag43
ag43
ag43
ag43
ag43
ag43
ag43
ag43
ag43
ag43
ag43
ag43
ag43
ag43
ag43
ag43
ag43
ag43
ag43
ag43
ag43
ag43
ag43
ag43
ag43
ag43
ag43
ag43
ag43
ag43
ag43
ag43
ag426
ag43
ag43
ag43
ag43
ag43
ag43
ag43
ag43
ag43
ag43
ag43
ag43
ag43
ag43
ag43
ag43
ag43
ag43
ag43
ag43
ag43
ag43
ag43
ag43
ag43
ag43
ag43
ag43
ag43
ag43
ag43
ag43
ag43
ag43
ag43
ag43
ag43
ag43
ag43
ag43
aa(lp1276
g43
ag43
ag43
ag43
ag43
ag43
ag43
ag43
ag43
ag43
ag43
ag43
ag43
ag43
ag43
ag43
ag43
ag43
ag43
ag43
ag43
ag43
ag43
ag43
ag43
ag43
ag43
ag43
ag43
ag43
ag43
ag43
ag43
ag43
ag1145
ag43
ag43
ag43
ag43
ag43
ag43
ag43
ag43
ag43
ag43
ag43
ag43
ag43
ag43
ag43
ag43
ag43
ag43
ag43
ag43
ag43
ag43
ag43
ag43
ag43
ag43
ag43
ag43
ag43
ag43
ag43
ag43
ag43
ag43
ag43
ag43
ag43
ag43
ag43
aa(lp1277
g43
ag43
ag43
ag2
(g4
g92
g99
tp1278
Rp1279
(dp1280
bag43
ag43
ag43
ag43
ag43
ag43
ag43
ag43
ag43
ag43
ag43
ag43
ag43
ag43
ag43
ag43
ag43
ag43
ag43
ag43
ag43
ag43
ag43
ag43
ag43
ag43
ag43
ag43
ag43
ag43
ag43
ag1155
ag43
ag43
ag43
ag138
ag43
ag43
ag43
ag43
ag43
ag89
(g142
g1062
tp1281
Rp1282
(dp1283
bag43
ag43
ag43
ag43
ag43
ag43
ag43
ag43
ag43
ag43
ag43
ag43
ag43
ag43
ag43
ag43
ag43
ag43
ag43
ag43
ag43
ag43
ag43
ag43
ag43
ag43
ag43
ag43
aa(lp1284
g43
ag43
ag43
ag43
ag43
ag43
ag43
ag43
ag43
ag43
ag43
ag43
ag43
ag43
ag43
ag43
ag43
ag43
ag43
ag43
ag43
ag43
ag2
(g853
g518
tp1285
Rp1286
(dp1287
bag43
ag43
ag43
ag43
ag43
ag43
ag43
ag43
ag43
ag43
ag43
ag43
ag43
ag2
(g853
g876
tp1288
Rp1289
(dp1290
bag43
ag43
ag43
ag89
(g2
(g4
g1257
tp1291
Rp1292
(dp1293
bg2
(g4
g886
tp1294
Rp1295
(dp1296
btp1297
Rp1298
(dp1299
bag43
ag43
ag43
ag43
ag43
ag43
ag43
ag43
ag43
ag43
ag43
ag43
ag43
ag43
ag43
ag43
ag43
ag43
ag43
ag43
ag43
ag43
ag43
ag43
ag43
ag43
ag43
ag43
ag43
ag43
ag43
ag43
ag43
aa(lp1300
g43
ag43
ag43
ag43
ag43
ag43
ag43
ag43
ag43
ag43
ag43
ag43
ag43
ag43
ag2
(g511
g518
tp1301
Rp1302
(dp1303
bag43
ag43
ag43
ag43
ag43
ag43
ag43
ag43
ag43
ag43
ag43
ag43
ag43
ag43
ag43
ag43
ag43
ag43
ag43
ag43
ag43
ag2
(g511
g555
tp1304
Rp1305
(dp1306
bag43
ag43
ag43
ag43
ag89
(g2
(g4
g565
tp1307
Rp1308
(dp1309
bg2
(g4
g1267
tp1310
Rp1311
(dp1312
btp1313
Rp1314
(dp1315
bag43
ag43
ag43
ag43
ag43
ag43
ag43
ag43
ag43
ag43
ag43
ag43
ag43
ag43
ag43
ag43
ag43
ag43
ag43
ag43
ag43
ag43
ag43
ag43
ag43
ag43
ag43
ag43
ag43
ag43
ag43
ag43
aa(lp1316
g43
ag43
ag43
ag43
ag43
ag43
ag43
ag43
ag43
ag43
ag43
ag43
ag43
ag43
ag43
ag2
(g583
g518
tp1317
Rp1318
(dp1319
bag43
ag43
ag43
ag43
ag43
ag43
ag43
ag43
ag43
ag43
ag43
ag43
ag43
ag43
ag43
ag43
ag43
ag43
ag43
ag43
ag2
(g583
g613
tp1320
Rp1321
(dp1322
bag43
ag43
ag43
ag43
ag43
ag2
(g4
g623
tp1323
Rp1324
(dp1325
bag43
ag43
ag43
ag43
ag43
ag43
ag43
ag43
ag43
ag43
ag43
ag43
ag43
ag43
ag43
ag43
ag43
ag43
ag43
ag43
ag43
ag43
ag43
ag43
ag43
ag43
ag43
ag43
ag43
ag43
ag43
aa(lp1326
g43
ag43
ag43
ag43
ag43
ag43
ag43
ag43
ag43
ag43
ag43
ag43
ag43
ag43
ag43
ag43
ag43
ag43
ag43
ag43
ag43
ag43
ag43
ag2
(g904
g518
tp1327
Rp1328
(dp1329
bag43
ag43
ag43
ag43
ag43
ag43
ag43
ag43
ag43
ag43
ag43
ag43
ag2
(g904
g940
tp1330
Rp1331
(dp1332
bag43
ag43
ag43
ag43
ag43
ag43
ag2
(g4
g950
tp1333
Rp1334
(dp1335
bag43
ag43
ag43
ag43
ag43
ag43
ag43
ag43
ag43
ag43
ag43
ag43
ag43
ag43
ag43
ag43
ag43
ag43
ag43
ag43
ag43
ag43
ag43
ag43
ag43
ag43
ag43
ag43
ag43
ag43
aa(lp1336
g43
ag43
ag43
ag43
ag43
ag43
ag43
ag43
ag43
ag43
ag43
ag43
ag43
ag43
ag43
ag43
ag43
ag2
(g659
g518
tp1337
Rp1338
(dp1339
bag43
ag43
ag43
ag43
ag43
ag43
ag43
ag43
ag43
ag43
ag43
ag43
ag43
ag43
ag43
ag43
ag43
ag43
ag2
(g659
g682
tp1340
Rp1341
(dp1342
bag43
ag43
ag43
ag43
ag43
ag43
ag43
ag2
(g4
g692
tp1343
Rp1344
(dp1345
bag43
ag43
ag43
ag43
ag43
ag43
ag43
ag43
ag43
ag43
ag43
ag43
ag43
ag43
ag43
ag43
ag43
ag43
ag43
ag43
ag43
ag43
ag43
ag43
ag43
ag43
ag43
ag43
ag43
aa(lp1346
g43
ag43
ag43
ag2
(g92
g99
tp1347
Rp1348
(dp1349
bag43
ag43
ag43
ag43
ag43
ag43
ag43
ag43
ag43
ag43
ag43
ag43
ag43
ag43
ag43
ag43
ag43
ag43
ag43
ag43
ag43
ag43
ag43
ag43
ag43
ag43
ag43
ag43
ag43
ag43
ag43
ag43
ag43
ag43
ag43
ag2
(g92
g122
tp1350
Rp1351
(dp1352
bag43
ag43
ag43
ag43
ag43
ag89
(g2
(g4
g1062
tp1353
Rp1354
(dp1355
bg2
(g4
g142
tp1356
Rp1357
(dp1358
btp1359
Rp1360
(dp1361
bag43
ag43
ag43
ag43
ag43
ag43
ag43
ag43
ag43
ag43
ag43
ag43
ag43
ag43
ag43
ag43
ag43
ag43
ag43
ag43
ag43
ag43
ag43
ag43
ag43
ag43
ag43
ag43
aa(lp1362
g43
ag43
ag43
ag43
ag43
ag43
ag43
ag43
ag43
ag43
ag43
ag43
ag43
ag43
ag43
ag2
(g4
g593
g600
tp1363
Rp1364
(dp1365
bag43
ag43
ag43
ag43
ag43
ag43
ag2
(g4
g863
g600
tp1366
Rp1367
(dp1368
bag2
(g4
g914
g600
tp1369
Rp1370
(dp1371
bag43
ag43
ag43
ag43
ag43
ag43
ag43
ag43
ag43
ag43
ag43
ag43
ag43
ag43
ag43
ag43
ag1257
ag43
ag43
ag43
ag43
ag43
ag89
(g2
(g4
g593
g613
tp1372
Rp1373
(dp1374
bg2
(g4
g863
g876
tp1375
Rp1376
(dp1377
bg2
(g4
g914
g940
tp1378
Rp1379
(dp1380
bg2
(g4
g6
(S'assemble_pore_sequential_Bax_4_kf'
p1381
tp1382
Rp1383
(dp1384
g11
g12
(g13
g14
(dp1385
g16
Nsg17
Nsg18
I01
sg19
Nstp1386
Rp1387
sbg6
(S's56'
p1388
tp1389
Rp1390
(dp1391
g11
g12
(g13
g14
(dp1392
g16
Nsg17
Nsg18
I01
sg19
Nstp1393
Rp1394
sbtp1395
Rp1396
(dp1397
bg2
(g4
g6
(S'assemble_pore_sequential_Bax_3_kf'
p1398
tp1399
Rp1400
(dp1401
g11
g12
(g13
g14
(dp1402
g16
Nsg17
Nsg18
I01
sg19
Nstp1403
Rp1404
sbg6
(S's54'
p1405
tp1406
Rp1407
(dp1408
g11
g12
(g13
g14
(dp1409
g16
Nsg17
Nsg18
I01
sg19
Nstp1410
Rp1411
sbtp1412
Rp1413
(dp1414
bg2
(csympy.core.numbers
Integer
p1415
(I-4
tp1416
Rp1417
(dp1418
bg6
(S'assemble_pore_sequential_Bax_2_kf'
p1419
tp1420
Rp1421
(dp1422
g11
g12
(g13
g14
(dp1423
g16
Nsg17
Nsg18
I01
sg19
Nstp1424
Rp1425
sbg600
tp1426
Rp1427
(dp1428
btp1429
Rp1430
(dp1431
bag43
ag89
(g896
g2
(g1415
(I2
tp1432
Rp1433
(dp1434
bg6
(S'catalyze_BaxABaxM_to_BaxA_BaxA_kc'
p1435
tp1436
Rp1437
(dp1438
g11
g12
(g13
g14
(dp1439
g18
I01
stp1440
Rp1441
sbtp1442
Rp1443
(dp1444
btp1445
Rp1446
(dp1447
bag43
ag633
ag963
ag43
ag43
ag89
(g2
(g4
g1400
g600
tp1448
Rp1449
(dp1450
bg2
(g1433
g6
(S'assemble_pore_sequential_Bax_2_kr'
p1451
tp1452
Rp1453
(dp1454
g11
g12
(g13
g14
(dp1455
g18
I01
stp1456
Rp1457
sbtp1458
Rp1459
(dp1460
btp1461
Rp1462
(dp1463
bag43
ag89
(g2
(g4
g1383
g600
tp1464
Rp1465
(dp1466
bg6
(S'assemble_pore_sequential_Bax_3_kr'
p1467
tp1468
Rp1469
(dp1470
g11
g12
(g13
g14
(dp1471
g18
I01
stp1472
Rp1473
sbtp1474
Rp1475
(dp1476
bag43
ag6
(S'assemble_pore_sequential_Bax_4_kr'
p1477
tp1478
Rp1479
(dp1480
g11
g12
(g13
g14
(dp1481
g18
I01
stp1482
Rp1483
sbag43
ag43
ag43
ag43
ag43
ag43
ag43
ag43
ag43
ag43
ag43
ag43
ag43
ag43
ag43
aa(lp1484
g43
ag43
ag43
ag43
ag43
ag43
ag43
ag43
ag43
ag43
ag43
ag43
ag43
ag43
ag2
(g4
g528
g535
tp1485
Rp1486
(dp1487
bag43
ag43
ag2
(g4
g669
g535
tp1488
Rp1489
(dp1490
bag43
ag43
ag43
ag43
ag43
ag2
(g4
g924
g535
tp1491
Rp1492
(dp1493
bag43
ag43
ag43
ag43
ag43
ag43
ag43
ag43
ag43
ag43
ag43
ag43
ag43
ag43
ag43
ag43
ag43
ag1267
ag43
ag43
ag43
ag43
ag43
ag89
(g2
(g4
g6
(S'assemble_pore_sequential_Bak_3_kf'
p1494
tp1495
Rp1496
(dp1497
g11
g12
(g13
g14
(dp1498
g16
Nsg17
Nsg18
I01
sg19
Nstp1499
Rp1500
sbg6
(S's55'
p1501
tp1502
Rp1503
(dp1504
g11
g12
(g13
g14
(dp1505
g16
Nsg17
Nsg18
I01
sg19
Nstp1506
Rp1507
sbtp1508
Rp1509
(dp1510
bg2
(g4
g528
g555
tp1511
Rp1512
(dp1513
bg2
(g4
g924
g940
tp1514
Rp1515
(dp1516
bg2
(g1417
g6
(S'assemble_pore_sequential_Bak_2_kf'
p1517
tp1518
Rp1519
(dp1520
g11
g12
(g13
g14
(dp1521
g16
Nsg17
Nsg18
I01
sg19
Nstp1522
Rp1523
sbg535
tp1524
Rp1525
(dp1526
bg2
(g4
g6
(S'assemble_pore_sequential_Bak_4_kf'
p1527
tp1528
Rp1529
(dp1530
g11
g12
(g13
g14
(dp1531
g16
Nsg17
Nsg18
I01
sg19
Nstp1532
Rp1533
sbg6
(S's57'
p1534
tp1535
Rp1536
(dp1537
g11
g12
(g13
g14
(dp1538
g16
Nsg17
Nsg18
I01
sg19
Nstp1539
Rp1540
sbtp1541
Rp1542
(dp1543
bg2
(g4
g669
g682
tp1544
Rp1545
(dp1546
btp1547
Rp1548
(dp1549
bag43
ag89
(g575
g2
(g1433
g6
(S'catalyze_BakABakM_to_BakA_BakA_kc'
p1550
tp1551
Rp1552
(dp1553
g11
g12
(g13
g14
(dp1554
g18
I01
stp1555
Rp1556
sbtp1557
Rp1558
(dp1559
btp1560
Rp1561
(dp1562
bag43
ag43
ag970
ag702
ag43
ag89
(g2
(g1433
g6
(S'assemble_pore_sequential_Bak_2_kr'
p1563
tp1564
Rp1565
(dp1566
g11
g12
(g13
g14
(dp1567
g18
I01
stp1568
Rp1569
sbtp1570
Rp1571
(dp1572
bg2
(g4
g1496
g535
tp1573
Rp1574
(dp1575
btp1576
Rp1577
(dp1578
bag43
ag89
(g6
(S'assemble_pore_sequential_Bak_3_kr'
p1579
tp1580
Rp1581
(dp1582
g11
g12
(g13
g14
(dp1583
g18
I01
stp1584
Rp1585
sbg2
(g4
g1529
g535
tp1586
Rp1587
(dp1588
btp1589
Rp1590
(dp1591
bag43
ag6
(S'assemble_pore_sequential_Bak_4_kr'
p1592
tp1593
Rp1594
(dp1595
g11
g12
(g13
g14
(dp1596
g18
I01
stp1597
Rp1598
sbag43
ag43
ag43
ag43
ag43
ag43
ag43
ag43
ag43
ag43
ag43
ag43
ag43
ag43
aa(lp1599
g43
ag43
ag43
ag43
ag43
ag43
ag43
ag43
ag43
ag43
ag43
ag43
ag43
ag43
ag43
ag43
ag43
ag43
ag43
ag43
ag43
ag43
ag2
(g863
g600
tp1600
Rp1601
(dp1602
bag43
ag43
ag43
ag43
ag43
ag43
ag43
ag43
ag43
ag43
ag43
ag43
ag43
ag43
ag43
ag43
ag43
ag43
ag43
ag43
ag43
ag43
ag43
ag2
(g863
g876
tp1603
Rp1604
(dp1605
bag43
ag89
(g2
(g4
g896
tp1606
Rp1607
(dp1608
bg2
(g4
g1437
tp1609
Rp1610
(dp1611
btp1612
Rp1613
(dp1614
bag43
ag43
ag43
ag43
ag43
ag43
ag43
ag43
ag43
ag43
ag43
ag43
ag43
ag43
ag43
ag43
ag43
ag43
ag43
ag43
ag43
ag43
ag43
ag43
ag43
aa(lp1615
g43
ag43
ag43
ag43
ag43
ag43
ag43
ag43
ag43
ag43
ag43
ag43
ag43
ag43
ag2
(g528
g535
tp1616
Rp1617
(dp1618
bag43
ag43
ag43
ag43
ag43
ag43
ag43
ag43
ag43
ag43
ag43
ag43
ag43
ag43
ag43
ag43
ag43
ag43
ag43
ag43
ag43
ag43
ag43
ag43
ag43
ag43
ag43
ag43
ag43
ag43
ag43
ag43
ag2
(g528
g555
tp1619
Rp1620
(dp1621
bag43
ag89
(g2
(g4
g575
tp1622
Rp1623
(dp1624
bg2
(g4
g1552
tp1625
Rp1626
(dp1627
btp1628
Rp1629
(dp1630
bag43
ag43
ag43
ag43
ag43
ag43
ag43
ag43
ag43
ag43
ag43
ag43
ag43
ag43
ag43
ag43
ag43
ag43
ag43
ag43
ag43
ag43
ag43
ag43
aa(lp1631
g43
ag43
ag43
ag43
ag43
ag43
ag43
ag43
ag43
ag43
ag43
ag43
ag43
ag43
ag43
ag2
(g593
g600
tp1632
Rp1633
(dp1634
bag43
ag43
ag43
ag43
ag43
ag43
ag43
ag43
ag43
ag43
ag43
ag43
ag43
ag43
ag43
ag43
ag43
ag43
ag43
ag43
ag43
ag43
ag43
ag43
ag43
ag43
ag43
ag43
ag43
ag43
ag2
(g593
g613
tp1635
Rp1636
(dp1637
bag43
ag43
ag43
ag2
(g4
g633
tp1638
Rp1639
(dp1640
bag43
ag43
ag43
ag43
ag43
ag43
ag43
ag43
ag43
ag43
ag43
ag43
ag43
ag43
ag43
ag43
ag43
ag43
ag43
ag43
ag43
ag43
ag43
aa(lp1641
g43
ag43
ag43
ag43
ag43
ag43
ag43
ag43
ag43
ag43
ag43
ag43
ag43
ag43
ag43
ag43
ag43
ag43
ag43
ag43
ag43
ag43
ag43
ag2
(g914
g600
tp1642
Rp1643
(dp1644
bag43
ag43
ag43
ag43
ag43
ag43
ag43
ag43
ag43
ag43
ag43
ag43
ag43
ag43
ag43
ag43
ag43
ag43
ag43
ag43
ag43
ag43
ag2
(g914
g940
tp1645
Rp1646
(dp1647
bag43
ag43
ag43
ag43
ag2
(g4
g963
tp1648
Rp1649
(dp1650
bag43
ag43
ag43
ag43
ag43
ag43
ag43
ag43
ag43
ag43
ag43
ag43
ag43
ag43
ag43
ag43
ag43
ag43
ag43
ag43
ag43
ag43
aa(lp1651
g43
ag43
ag43
ag43
ag43
ag43
ag43
ag43
ag43
ag43
ag43
ag43
ag43
ag43
ag43
ag43
ag43
ag43
ag43
ag43
ag43
ag43
ag43
ag2
(g924
g535
tp1652
Rp1653
(dp1654
bag43
ag43
ag43
ag43
ag43
ag43
ag43
ag43
ag43
ag43
ag43
ag43
ag43
ag43
ag43
ag43
ag43
ag43
ag43
ag43
ag43
ag43
ag43
ag2
(g924
g940
tp1655
Rp1656
(dp1657
bag43
ag43
ag43
ag43
ag2
(g4
g970
tp1658
Rp1659
(dp1660
bag43
ag43
ag43
ag43
ag43
ag43
ag43
ag43
ag43
ag43
ag43
ag43
ag43
ag43
ag43
ag43
ag43
ag43
ag43
ag43
ag43
aa(lp1661
g43
ag43
ag43
ag43
ag43
ag43
ag43
ag43
ag43
ag43
ag43
ag43
ag43
ag43
ag43
ag43
ag43
ag2
(g669
g535
tp1662
Rp1663
(dp1664
bag43
ag43
ag43
ag43
ag43
ag43
ag43
ag43
ag43
ag43
ag43
ag43
ag43
ag43
ag43
ag43
ag43
ag43
ag43
ag43
ag43
ag43
ag43
ag43
ag43
ag43
ag43
ag43
ag43
ag2
(g669
g682
tp1665
Rp1666
(dp1667
bag43
ag43
ag43
ag43
ag43
ag2
(g4
g702
tp1668
Rp1669
(dp1670
bag43
ag43
ag43
ag43
ag43
ag43
ag43
ag43
ag43
ag43
ag43
ag43
ag43
ag43
ag43
ag43
ag43
ag43
ag43
ag43
aa(lp1671
g43
ag43
ag43
ag43
ag43
ag43
ag43
ag43
ag43
ag43
ag43
ag43
ag43
ag43
ag43
ag43
ag43
ag43
ag43
ag43
ag43
ag43
ag43
ag43
ag43
ag43
ag43
ag43
ag43
ag43
ag43
ag43
ag43
ag43
ag43
ag43
ag43
ag43
ag43
ag43
ag43
ag43
ag43
ag43
ag43
ag43
ag89
(g2
(g4
g1400
g1407
tp1672
Rp1673
(dp1674
bg2
(g1433
g1421
g600
tp1675
Rp1676
(dp1677
btp1678
Rp1679
(dp1680
bag43
ag43
ag43
ag43
ag43
ag43
ag43
ag89
(g2
(g4
g1400
g600
tp1681
Rp1682
(dp1683
bg2
(g4
g1453
tp1684
Rp1685
(dp1686
btp1687
Rp1688
(dp1689
bag43
ag1469
ag43
ag43
ag43
ag43
ag43
ag43
ag43
ag43
ag43
ag43
ag43
ag43
ag43
ag43
ag43
ag43
ag43
aa(lp1690
g43
ag43
ag43
ag43
ag43
ag43
ag43
ag43
ag43
ag43
ag43
ag43
ag43
ag43
ag43
ag43
ag43
ag43
ag43
ag43
ag43
ag43
ag43
ag43
ag43
ag43
ag43
ag43
ag43
ag43
ag43
ag43
ag43
ag43
ag43
ag43
ag43
ag43
ag43
ag43
ag43
ag43
ag43
ag43
ag43
ag43
ag43
ag89
(g2
(g4
g1496
g1503
tp1691
Rp1692
(dp1693
bg2
(g1433
g1519
g535
tp1694
Rp1695
(dp1696
btp1697
Rp1698
(dp1699
bag43
ag43
ag43
ag43
ag43
ag43
ag43
ag89
(g2
(g4
g1565
tp1700
Rp1701
(dp1702
bg2
(g4
g1496
g535
tp1703
Rp1704
(dp1705
btp1706
Rp1707
(dp1708
bag43
ag1581
ag43
ag43
ag43
ag43
ag43
ag43
ag43
ag43
ag43
ag43
ag43
ag43
ag43
ag43
ag43
ag43
aa(lp1709
g43
ag43
ag43
ag43
ag43
ag43
ag43
ag43
ag43
ag43
ag43
ag43
ag43
ag43
ag43
ag43
ag43
ag43
ag43
ag43
ag43
ag43
ag43
ag43
ag43
ag43
ag43
ag43
ag43
ag43
ag43
ag43
ag43
ag43
ag43
ag43
ag43
ag43
ag43
ag43
ag43
ag43
ag43
ag43
ag43
ag43
ag89
(g2
(g1400
g1407
tp1710
Rp1711
(dp1712
bg2
(g4
g1383
g1390
tp1713
Rp1714
(dp1715
btp1716
Rp1717
(dp1718
bag43
ag43
ag43
ag43
ag43
ag43
ag43
ag2
(g1400
g600
tp1719
Rp1720
(dp1721
bag43
ag89
(g2
(g4
g1383
g600
tp1722
Rp1723
(dp1724
bg2
(g4
g1469
tp1725
Rp1726
(dp1727
btp1728
Rp1729
(dp1730
bag43
ag1479
ag43
ag43
ag43
ag43
ag43
ag43
ag43
ag43
ag43
ag43
ag43
ag43
ag43
ag43
ag43
aa(lp1731
g43
ag43
ag43
ag43
ag43
ag43
ag43
ag43
ag43
ag43
ag43
ag43
ag43
ag43
ag43
ag43
ag43
ag43
ag43
ag43
ag43
ag43
ag43
ag43
ag43
ag43
ag43
ag43
ag43
ag43
ag43
ag43
ag43
ag43
ag43
ag43
ag43
ag43
ag43
ag43
ag43
ag43
ag43
ag43
ag43
ag43
ag43
ag89
(g2
(g4
g1529
g1536
tp1732
Rp1733
(dp1734
bg2
(g1496
g1503
tp1735
Rp1736
(dp1737
btp1738
Rp1739
(dp1740
bag43
ag43
ag43
ag43
ag43
ag43
ag43
ag2
(g1496
g535
tp1741
Rp1742
(dp1743
bag43
ag89
(g2
(g4
g1581
tp1744
Rp1745
(dp1746
bg2
(g4
g1529
g535
tp1747
Rp1748
(dp1749
btp1750
Rp1751
(dp1752
bag43
ag1594
ag43
ag43
ag43
ag43
ag43
ag43
ag43
ag43
ag43
ag43
ag43
ag43
ag43
ag43
aa(lp1753
g43
ag43
ag43
ag43
ag43
ag43
ag43
ag43
ag43
ag43
ag43
ag43
ag43
ag43
ag43
ag43
ag43
ag43
ag43
ag2
(g4
g728
g735
tp1754
Rp1755
(dp1756
bag2
(g4
g776
g735
tp1757
Rp1758
(dp1759
bag43
ag43
ag43
ag43
ag43
ag43
ag43
ag43
ag43
ag43
ag43
ag43
ag43
ag43
ag43
ag43
ag43
ag43
ag43
ag43
ag43
ag43
ag43
ag43
ag43
ag2
(g1383
g1390
tp1760
Rp1761
(dp1762
bag43
ag43
ag43
ag43
ag43
ag43
ag43
ag43
ag43
ag2
(g1383
g600
tp1763
Rp1764
(dp1765
bag43
ag89
(g2
(g4
g776
g799
tp1766
Rp1767
(dp1768
bg2
(g4
g1479
tp1769
Rp1770
(dp1771
bg2
(g4
g728
g748
tp1772
Rp1773
(dp1774
btp1775
Rp1776
(dp1777
bag43
ag89
(g761
g6
(S'pore_transport_dissociate_BaxA_4_CytoCC_kc'
p1778
tp1779
Rp1780
(dp1781
g11
g12
(g13
g14
(dp1782
g18
I01
stp1783
Rp1784
sbtp1785
Rp1786
(dp1787
bag89
(g812
g6
(S'pore_transport_dissociate_BaxA_4_SmacC_kc'
p1788
tp1789
Rp1790
(dp1791
g11
g12
(g13
g14
(dp1792
g18
I01
stp1793
Rp1794
sbtp1795
Rp1796
(dp1797
bag43
ag43
ag43
ag43
ag43
ag43
ag43
ag43
ag43
ag43
ag43
ag43
aa(lp1798
g43
ag43
ag43
ag43
ag43
ag43
ag43
ag43
ag43
ag43
ag43
ag43
ag43
ag43
ag43
ag43
ag43
ag43
ag43
ag2
(g4
g711
g718
tp1799
Rp1800
(dp1801
bag2
(g4
g786
g718
tp1802
Rp1803
(dp1804
bag43
ag43
ag43
ag43
ag43
ag43
ag43
ag43
ag43
ag43
ag43
ag43
ag43
ag43
ag43
ag43
ag43
ag43
ag43
ag43
ag43
ag43
ag43
ag43
ag43
ag43
ag2
(g1529
g1536
tp1805
Rp1806
(dp1807
bag43
ag43
ag43
ag43
ag43
ag43
ag43
ag43
ag43
ag2
(g1529
g535
tp1808
Rp1809
(dp1810
bag43
ag89
(g2
(g4
g711
g748
tp1811
Rp1812
(dp1813
bg2
(g4
g1594
tp1814
Rp1815
(dp1816
bg2
(g4
g786
g799
tp1817
Rp1818
(dp1819
btp1820
Rp1821
(dp1822
bag43
ag43
ag89
(g6
(S'pore_transport_dissociate_BakA_4_CytoCC_kc'
p1823
tp1824
Rp1825
(dp1826
g11
g12
(g13
g14
(dp1827
g18
I01
stp1828
Rp1829
sbg768
tp1830
Rp1831
(dp1832
bag89
(g6
(S'pore_transport_dissociate_BakA_4_SmacC_kc'
p1833
tp1834
Rp1835
(dp1836
g11
g12
(g13
g14
(dp1837
g18
I01
stp1838
Rp1839
sbg819
tp1840
Rp1841
(dp1842
bag43
ag43
ag43
ag43
ag43
ag43
ag43
ag43
ag43
ag43
aa(lp1843
g43
ag43
ag43
ag43
ag43
ag43
ag43
ag43
ag43
ag43
ag43
ag43
ag43
ag43
ag43
ag43
ag43
ag43
ag43
ag2
(g728
g735
tp1844
Rp1845
(dp1846
bag43
ag43
ag43
ag43
ag43
ag43
ag43
ag43
ag43
ag43
ag43
ag43
ag43
ag43
ag43
ag43
ag43
ag43
ag43
ag43
ag43
ag43
ag43
ag43
ag43
ag43
ag43
ag43
ag43
ag43
ag43
ag43
ag43
ag43
ag43
ag43
ag43
ag43
ag2
(g728
g748
tp1847
Rp1848
(dp1849
bag43
ag89
(g2
(g4
g1780
tp1850
Rp1851
(dp1852
bg2
(g4
g761
tp1853
Rp1854
(dp1855
btp1856
Rp1857
(dp1858
bag43
ag43
ag43
ag43
ag43
ag43
ag43
ag43
ag43
ag43
ag43
ag43
ag43
aa(lp1859
g43
ag43
ag43
ag43
ag43
ag43
ag43
ag43
ag43
ag43
ag43
ag43
ag43
ag43
ag43
ag43
ag43
ag43
ag43
ag43
ag2
(g776
g735
tp1860
Rp1861
(dp1862
bag43
ag43
ag43
ag43
ag43
ag43
ag43
ag43
ag43
ag43
ag43
ag43
ag43
ag43
ag43
ag43
ag43
ag43
ag43
ag43
ag43
ag43
ag43
ag43
ag43
ag43
ag43
ag43
ag43
ag43
ag43
ag43
ag43
ag43
ag43
ag43
ag43
ag2
(g776
g799
tp1863
Rp1864
(dp1865
bag43
ag43
ag89
(g2
(g4
g812
tp1866
Rp1867
(dp1868
bg2
(g4
g1790
tp1869
Rp1870
(dp1871
btp1872
Rp1873
(dp1874
bag43
ag43
ag43
ag43
ag43
ag43
ag43
ag43
ag43
ag43
ag43
ag43
aa(lp1875
g43
ag43
ag43
ag43
ag43
ag43
ag43
ag43
ag43
ag43
ag43
ag43
ag43
ag43
ag43
ag43
ag43
ag43
ag43
ag2
(g711
g718
tp1876
Rp1877
(dp1878
bag43
ag43
ag43
ag43
ag43
ag43
ag43
ag43
ag43
ag43
ag43
ag43
ag43
ag43
ag43
ag43
ag43
ag43
ag43
ag43
ag43
ag43
ag43
ag43
ag43
ag43
ag43
ag43
ag43
ag43
ag43
ag43
ag43
ag43
ag43
ag43
ag43
ag43
ag43
ag2
(g711
g748
tp1879
Rp1880
(dp1881
bag43
ag43
ag89
(g2
(g4
g1825
tp1882
Rp1883
(dp1884
bg2
(g4
g768
tp1885
Rp1886
(dp1887
btp1888
Rp1889
(dp1890
bag43
ag43
ag43
ag43
ag43
ag43
ag43
ag43
ag43
ag43
ag43
aa(lp1891
g43
ag43
ag43
ag43
ag43
ag43
ag43
ag43
ag43
ag43
ag43
ag43
ag43
ag43
ag43
ag43
ag43
ag43
ag43
ag43
ag2
(g786
g718
tp1892
Rp1893
(dp1894
bag43
ag43
ag43
ag43
ag43
ag43
ag43
ag43
ag43
ag43
ag43
ag43
ag43
ag43
ag43
ag43
ag43
ag43
ag43
ag43
ag43
ag43
ag43
ag43
ag43
ag43
ag43
ag43
ag43
ag43
ag43
ag43
ag43
ag43
ag43
ag43
ag43
ag43
ag2
(g786
g799
tp1895
Rp1896
(dp1897
bag43
ag43
ag43
ag89
(g2
(g4
g819
tp1898
Rp1899
(dp1900
bg2
(g4
g1835
tp1901
Rp1902
(dp1903
btp1904
Rp1905
(dp1906
bag43
ag43
ag43
ag43
ag43
ag43
ag43
ag43
ag43
ag43
aa(lp1907
g43
ag43
ag43
ag43
ag43
ag43
ag43
ag43
ag43
ag43
ag43
ag43
ag43
ag43
ag43
ag43
ag43
ag43
ag43
ag43
ag43
ag43
ag43
ag43
ag43
ag43
ag43
ag43
ag43
ag43
ag43
ag43
ag43
ag43
ag43
ag43
ag43
ag43
ag43
ag43
ag43
ag43
ag43
ag43
ag43
ag43
ag43
ag43
ag43
ag43
ag43
ag43
ag43
ag43
ag43
ag43
ag43
ag43
ag43
ag43
ag1780
ag43
ag1825
ag43
ag2
(g4
g6
(S'equilibrate_CytoCC_to_CytoCA_kf'
p1908
tp1909
Rp1910
(dp1911
g11
g12
(g13
g14
(dp1912
g18
I01
stp1913
Rp1914
sbtp1915
Rp1916
(dp1917
bag43
ag43
ag6
(S'equilibrate_CytoCC_to_CytoCA_kr'
p1918
tp1919
Rp1920
(dp1921
g11
g12
(g13
g14
(dp1922
g18
I01
stp1923
Rp1924
sbag43
ag43
ag43
ag43
ag43
ag43
aa(lp1925
g43
ag43
ag43
ag43
ag43
ag43
ag43
ag43
ag43
ag43
ag43
ag43
ag43
ag43
ag43
ag43
ag43
ag43
ag43
ag43
ag43
ag43
ag43
ag43
ag43
ag43
ag43
ag43
ag43
ag43
ag43
ag43
ag43
ag43
ag43
ag43
ag43
ag43
ag43
ag43
ag43
ag43
ag43
ag43
ag43
ag43
ag43
ag43
ag43
ag43
ag43
ag43
ag43
ag43
ag43
ag43
ag43
ag43
ag43
ag43
ag43
ag1790
ag43
ag1835
ag43
ag2
(g4
g6
(S'equilibrate_SmacC_to_SmacA_kf'
p1926
tp1927
Rp1928
(dp1929
g11
g12
(g13
g14
(dp1930
g18
I01
stp1931
Rp1932
sbtp1933
Rp1934
(dp1935
bag6
(S'equilibrate_SmacC_to_SmacA_kr'
p1936
tp1937
Rp1938
(dp1939
g11
g12
(g13
g14
(dp1940
g18
I01
stp1941
Rp1942
sbag43
ag43
ag43
ag43
ag43
ag43
ag43
aa(lp1943
g43
ag43
ag43
ag43
ag43
ag43
ag43
ag43
ag43
ag43
ag2
(g4
g396
g403
tp1944
Rp1945
(dp1946
bag43
ag43
ag43
ag43
ag43
ag43
ag43
ag43
ag43
ag43
ag43
ag43
ag43
ag43
ag43
ag43
ag43
ag43
ag43
ag43
ag43
ag43
ag43
ag43
ag43
ag43
ag43
ag43
ag43
ag43
ag43
ag43
ag43
ag43
ag43
ag43
ag43
ag43
ag43
ag43
ag43
ag43
ag43
ag43
ag43
ag43
ag43
ag43
ag43
ag43
ag43
ag43
ag43
ag43
ag1928
ag89
(g2
(g4
g396
g416
tp1947
Rp1948
(dp1949
bg2
(g4
g1938
tp1950
Rp1951
(dp1952
btp1953
Rp1954
(dp1955
bag43
ag43
ag446
ag43
ag43
ag43
ag43
aa(lp1956
g43
ag43
ag43
ag43
ag43
ag198
ag43
ag43
ag43
ag43
ag43
ag43
ag43
ag43
ag43
ag43
ag43
ag43
ag43
ag43
ag43
ag43
ag43
ag43
ag43
ag43
ag43
ag43
ag43
ag43
ag43
ag43
ag43
ag43
ag43
ag43
ag43
ag43
ag43
ag43
ag43
ag43
ag43
ag43
ag43
ag43
ag43
ag43
ag43
ag43
ag43
ag43
ag43
ag43
ag43
ag43
ag43
ag43
ag43
ag43
ag43
ag43
ag43
ag43
ag1910
ag43
ag43
ag89
(g2
(g4
g185
g202
tp1957
Rp1958
(dp1959
bg2
(g4
g1920
tp1960
Rp1961
(dp1962
btp1963
Rp1964
(dp1965
bag89
(g6
(S'catalyze_CytoCAApafI_to_CytoCA_ApafA_kc'
p1966
tp1967
Rp1968
(dp1969
g11
g12
(g13
g14
(dp1970
g18
I01
stp1971
Rp1972
sbg212
tp1973
Rp1974
(dp1975
bag43
ag43
ag43
ag43
ag43
aa(lp1976
g43
ag43
ag43
ag43
ag43
ag2
(g185
g192
tp1977
Rp1978
(dp1979
bag43
ag43
ag43
ag43
ag43
ag43
ag43
ag43
ag43
ag43
ag43
ag43
ag43
ag43
ag43
ag43
ag43
ag43
ag43
ag43
ag43
ag43
ag43
ag43
ag43
ag43
ag43
ag43
ag43
ag43
ag43
ag43
ag43
ag43
ag43
ag43
ag43
ag43
ag43
ag43
ag43
ag43
ag43
ag43
ag43
ag43
ag43
ag43
ag43
ag43
ag43
ag43
ag43
ag43
ag43
ag43
ag43
ag43
ag43
ag43
ag43
ag2
(g185
g202
tp1980
Rp1981
(dp1982
bag89
(g2
(g4
g212
tp1983
Rp1984
(dp1985
bg2
(g4
g1968
tp1986
Rp1987
(dp1988
btp1989
Rp1990
(dp1991
bag43
ag43
ag43
ag43
ag43
aa(lp1992
g43
ag43
ag43
ag43
ag43
ag43
ag43
ag43
ag43
ag43
ag2
(g396
g403
tp1993
Rp1994
(dp1995
bag43
ag43
ag43
ag43
ag43
ag43
ag43
ag43
ag43
ag43
ag43
ag43
ag43
ag43
ag43
ag43
ag43
ag43
ag43
ag43
ag43
ag43
ag43
ag43
ag43
ag43
ag43
ag43
ag43
ag43
ag43
ag43
ag43
ag43
ag43
ag43
ag43
ag43
ag43
ag43
ag43
ag43
ag43
ag43
ag43
ag43
ag43
ag43
ag43
ag43
ag43
ag43
ag43
ag43
ag43
ag2
(g396
g416
tp1996
Rp1997
(dp1998
bag43
ag43
ag2
(g4
g446
tp1999
Rp2000
(dp2001
bag43
ag43
ag43
ag43
aa(lp2002
g43
ag43
ag43
ag43
ag43
ag43
ag43
ag43
ag326
ag43
ag43
ag43
ag43
ag43
ag43
ag43
ag43
ag43
ag43
ag43
ag43
ag43
ag43
ag43
ag43
ag43
ag43
ag43
ag43
ag43
ag43
ag43
ag43
ag43
ag43
ag43
ag43
ag43
ag43
ag43
ag43
ag43
ag43
ag43
ag43
ag43
ag43
ag43
ag43
ag43
ag43
ag43
ag43
ag43
ag43
ag43
ag43
ag43
ag43
ag43
ag43
ag43
ag43
ag43
ag43
ag43
ag43
ag43
ag1968
ag43
ag336
ag340
ag43
ag43
aa(lp2003
g43
ag43
ag43
ag43
ag43
ag43
ag2
(g4
g230
g237
tp2004
Rp2005
(dp2006
bag43
ag2
(g313
g320
tp2007
Rp2008
(dp2009
bag43
ag2
(g4
g386
g237
tp2010
Rp2011
(dp2012
bag43
ag43
ag43
ag43
ag43
ag43
ag43
ag43
ag43
ag43
ag43
ag43
ag43
ag43
ag43
ag43
ag43
ag43
ag43
ag43
ag43
ag43
ag43
ag43
ag43
ag43
ag43
ag43
ag43
ag43
ag43
ag43
ag43
ag43
ag43
ag43
ag43
ag43
ag43
ag43
ag43
ag43
ag43
ag43
ag43
ag43
ag43
ag43
ag43
ag43
ag43
ag43
ag43
ag43
ag43
ag43
ag43
ag43
ag43
ag2
(g313
g330
tp2013
Rp2014
(dp2015
bag89
(g2
(g4
g340
tp2016
Rp2017
(dp2018
bg2
(g4
g230
g250
tp2019
Rp2020
(dp2021
bg2
(g4
g386
g416
tp2022
Rp2023
(dp2024
btp2025
Rp2026
(dp2027
bag89
(g270
g1165
tp2028
Rp2029
(dp2030
bag456
aa(lp2031
g43
ag43
ag43
ag43
ag43
ag43
ag2
(g230
g237
tp2032
Rp2033
(dp2034
bag43
ag43
ag43
ag43
ag43
ag43
ag43
ag43
ag43
ag43
ag43
ag43
ag43
ag43
ag43
ag43
ag43
ag43
ag43
ag43
ag43
ag43
ag43
ag43
ag43
ag43
ag43
ag43
ag43
ag43
ag43
ag43
ag43
ag43
ag43
ag43
ag43
ag43
ag43
ag43
ag43
ag43
ag43
ag43
ag43
ag43
ag43
ag43
ag43
ag43
ag43
ag43
ag43
ag43
ag43
ag43
ag43
ag43
ag43
ag43
ag43
ag43
ag43
ag43
ag2
(g230
g250
tp2035
Rp2036
(dp2037
bag89
(g2
(g4
g270
tp2038
Rp2039
(dp2040
bg2
(g4
g1165
tp2041
Rp2042
(dp2043
btp2044
Rp2045
(dp2046
bag43
aa(lp2047
g43
ag43
ag43
ag43
ag43
ag43
ag43
ag43
ag43
ag43
ag2
(g386
g237
tp2048
Rp2049
(dp2050
bag43
ag43
ag43
ag43
ag43
ag43
ag43
ag43
ag43
ag43
ag43
ag43
ag43
ag43
ag43
ag43
ag43
ag43
ag43
ag43
ag43
ag43
ag43
ag43
ag43
ag43
ag43
ag43
ag43
ag43
ag43
ag43
ag43
ag43
ag43
ag43
ag43
ag43
ag43
ag43
ag43
ag43
ag43
ag43
ag43
ag43
ag43
ag43
ag43
ag43
ag43
ag43
ag43
ag43
ag43
ag43
ag43
ag43
ag43
ag43
ag2
(g386
g416
tp2051
Rp2052
(dp2053
bag43
ag2
(g4
g456
tp2054
Rp2055
(dp2056
baa.