(lp0
(dp1
S'reactants'
p2
(I0
I1
tp3
sS'products'
p4
(I21
tp5
sS'rate'
p6
csympy.core.mul
Mul
p7
(csympy.core.symbol
Symbol
p8
(S'bind_L_R_to_LR_kf'
p9
tp10
Rp11
(dp12
S'_assumptions'
p13
ccopy_reg
_reconstructor
p14
(csympy.core.assumptions
StdFactKB
p15
c__builtin__
dict
p16
(dp17
S'commutative'
p18
I01
stp19
Rp20
sbg8
(S's0'
p21
tp22
Rp23
(dp24
g13
g14
(g15
g16
(dp25
g18
I01
stp26
Rp27
sbg8
(S's1'
p28
tp29
Rp30
(dp31
g13
g14
(g15
g16
(dp32
g18
I01
stp33
Rp34
sbtp35
Rp36
(dp37
bsS'rule'
p38
S'bind_L_R_to_LR'
p39
sS'reverse'
p40
I00
sa(dp41
g2
(I13
tp42
sg4
(I22
tp43
sg6
g7
(g8
(S'equilibrate_BaxC_to_BaxM_kf'
p44
tp45
Rp46
(dp47
g13
g14
(g15
g16
(dp48
g18
I01
stp49
Rp50
sbg8
(S's13'
p51
tp52
Rp53
(dp54
g13
g14
(g15
g16
(dp55
S'positive'
p56
NsS'zero'
p57
Nsg18
I01
sS'negative'
p58
Nstp59
Rp60
sbtp61
Rp62
(dp63
bsg38
S'equilibrate_BaxC_to_BaxM'
p64
sg40
I00
sa(dp65
g2
(I16
tp66
sg4
(I23
tp67
sg6
g7
(g8
(S'equilibrate_BclxLC_to_BclxLM_kf'
p68
tp69
Rp70
(dp71
g13
g14
(g15
g16
(dp72
g18
I01
stp73
Rp74
sbg8
(S's16'
p75
tp76
Rp77
(dp78
g13
g14
(g15
g16
(dp79
g56
Nsg57
Nsg18
I01
sg58
Nstp80
Rp81
sbtp82
Rp83
(dp84
bsg38
S'equilibrate_BclxLC_to_BclxLM'
p85
sg40
I00
sa(dp86
g2
(I21
tp87
sg4
(I0
I1
tp88
sg6
g7
(g8
(S'bind_L_R_to_LR_kr'
p89
tp90
Rp91
(dp92
g13
g14
(g15
g16
(dp93
g18
I01
stp94
Rp95
sbg8
(S's21'
p96
tp97
Rp98
(dp99
g13
g14
(g15
g16
(dp100
g56
Nsg57
Nsg18
I01
sg58
Nstp101
Rp102
sbtp103
Rp104
(dp105
bsg38
S'bind_L_R_to_LR'
p106
sg40
I01
sa(dp107
g2
(I21
tp108
sg4
(I24
tp109
sg6
g7
(g8
(S'convert_LR_to_DISC_kc'
p110
tp111
Rp112
(dp113
g13
g14
(g15
g16
(dp114
g18
I01
stp115
Rp116
sbg98
tp117
Rp118
(dp119
bsg38
S'convert_LR_to_DISC'
p120
sg40
I00
sa(dp121
g2
(I22
tp122
sg4
(I13
tp123
sg6
g7
(g8
(S'equilibrate_BaxC_to_BaxM_kr'
p124
tp125
Rp126
(dp127
g13
g14
(g15
g16
(dp128
g18
I01
stp129
Rp130
sbg8
(S's22'
p131
tp132
Rp133
(dp134
g13
g14
(g15
g16
(dp135
g56
Nsg57
Nsg18
I01
sg58
Nstp136
Rp137
sbtp138
Rp139
(dp140
bsg38
S'equilibrate_BaxC_to_BaxM'
p141
sg40
I01
sa(dp142
g2
(I23
tp143
sg4
(I16
tp144
sg6
g7
(g8
(S'equilibrate_BclxLC_to_BclxLM_kr'
p145
tp146
Rp147
(dp148
g13
g14
(g15
g16
(dp149
g18
I01
stp150
Rp151
sbg8
(S's23'
p152
tp153
Rp154
(dp155
g13
g14
(g15
g16
(dp156
g56
Nsg57
Nsg18
I01
sg58
Nstp157
Rp158
sbtp159
Rp160
(dp161
bsg38
S'equilibrate_BclxLC_to_BclxLM'
p162
sg40
I01
sa(dp163
g2
(I3
I24
tp164
sg4
(I25
tp165
sg6
g7
(g8
(S'bind_DISC_C8pro_to_DISCC8pro_kf'
p166
tp167
Rp168
(dp169
g13
g14
(g15
g16
(dp170
g18
I01
stp171
Rp172
sbg8
(S's24'
p173
tp174
Rp175
(dp176
g13
g14
(g15
g16
(dp177
g18
I01
stp178
Rp179
sbg8
(S's3'
p180
tp181
Rp182
(dp183
g13
g14
(g15
g16
(dp184
g18
I01
stp185
Rp186
sbtp187
Rp188
(dp189
bsg38
S'bind_DISC_C8pro_to_DISCC8pro'
p190
sg40
I00
sa(dp191
g2
(I2
I24
tp192
sg4
(I26
tp193
sg6
g7
(g8
(S'bind_DISC_flip_kf'
p194
tp195
Rp196
(dp197
g13
g14
(g15
g16
(dp198
g18
I01
stp199
Rp200
sbg8
(S's2'
p201
tp202
Rp203
(dp204
g13
g14
(g15
g16
(dp205
g18
I01
stp206
Rp207
sbg175
tp208
Rp209
(dp210
bsg38
S'bind_DISC_flip'
p211
sg40
I00
sa(dp212
g2
(I25
tp213
sg4
(I3
I24
tp214
sg6
g7
(g8
(S'bind_DISC_C8pro_to_DISCC8pro_kr'
p215
tp216
Rp217
(dp218
g13
g14
(g15
g16
(dp219
g18
I01
stp220
Rp221
sbg8
(S's25'
p222
tp223
Rp224
(dp225
g13
g14
(g15
g16
(dp226
g56
Nsg57
Nsg18
I01
sg58
Nstp227
Rp228
sbtp229
Rp230
(dp231
bsg38
S'bind_DISC_C8pro_to_DISCC8pro'
p232
sg40
I01
sa(dp233
g2
(I25
tp234
sg4
(I24
I27
tp235
sg6
g7
(g8
(S'catalyze_DISCC8pro_to_DISC_C8A_kc'
p236
tp237
Rp238
(dp239
g13
g14
(g15
g16
(dp240
g18
I01
stp241
Rp242
sbg224
tp243
Rp244
(dp245
bsg38
S'catalyze_DISCC8pro_to_DISC_C8A'
p246
sg40
I00
sa(dp247
g2
(I26
tp248
sg4
(I2
I24
tp249
sg6
g7
(g8
(S'bind_DISC_flip_kr'
p250
tp251
Rp252
(dp253
g13
g14
(g15
g16
(dp254
g18
I01
stp255
Rp256
sbg8
(S's26'
p257
tp258
Rp259
(dp260
g13
g14
(g15
g16
(dp261
g56
Nsg57
Nsg18
I01
sg58
Nstp262
Rp263
sbtp264
Rp265
(dp266
bsg38
S'bind_DISC_flip'
p267
sg40
I01
sa(dp268
g2
(I11
I27
tp269
sg4
(I28
tp270
sg6
g7
(g8
(S'bind_C8A_BidU_to_C8ABidU_kf'
p271
tp272
Rp273
(dp274
g13
g14
(g15
g16
(dp275
g18
I01
stp276
Rp277
sbg8
(S's11'
p278
tp279
Rp280
(dp281
g13
g14
(g15
g16
(dp282
g18
I01
stp283
Rp284
sbg8
(S's27'
p285
tp286
Rp287
(dp288
g13
g14
(g15
g16
(dp289
g18
I01
stp290
Rp291
sbtp292
Rp293
(dp294
bsg38
S'bind_C8A_BidU_to_C8ABidU'
p295
sg40
I00
sa(dp296
g2
(I4
I27
tp297
sg4
(I29
tp298
sg6
g7
(g8
(S'bind_BAR_C8A_kf'
p299
tp300
Rp301
(dp302
g13
g14
(g15
g16
(dp303
g18
I01
stp304
Rp305
sbg287
g8
(S's4'
p306
tp307
Rp308
(dp309
g13
g14
(g15
g16
(dp310
g18
I01
stp311
Rp312
sbtp313
Rp314
(dp315
bsg38
S'bind_BAR_C8A'
p316
sg40
I00
sa(dp317
g2
(I6
I27
tp318
sg4
(I30
tp319
sg6
g7
(g8
(S'bind_C8A_C3pro_to_C8AC3pro_kf'
p320
tp321
Rp322
(dp323
g13
g14
(g15
g16
(dp324
g18
I01
stp325
Rp326
sbg287
g8
(S's6'
p327
tp328
Rp329
(dp330
g13
g14
(g15
g16
(dp331
g18
I01
stp332
Rp333
sbtp334
Rp335
(dp336
bsg38
S'bind_C8A_C3pro_to_C8AC3pro'
p337
sg40
I00
sa(dp338
g2
(I28
tp339
sg4
(I11
I27
tp340
sg6
g7
(g8
(S'bind_C8A_BidU_to_C8ABidU_kr'
p341
tp342
Rp343
(dp344
g13
g14
(g15
g16
(dp345
g18
I01
stp346
Rp347
sbg8
(S's28'
p348
tp349
Rp350
(dp351
g13
g14
(g15
g16
(dp352
g56
Nsg57
Nsg18
I01
sg58
Nstp353
Rp354
sbtp355
Rp356
(dp357
bsg38
S'bind_C8A_BidU_to_C8ABidU'
p358
sg40
I01
sa(dp359
g2
(I28
tp360
sg4
(I27
I31
tp361
sg6
g7
(g8
(S'catalyze_C8ABidU_to_C8A_BidT_kc'
p362
tp363
Rp364
(dp365
g13
g14
(g15
g16
(dp366
g18
I01
stp367
Rp368
sbg350
tp369
Rp370
(dp371
bsg38
S'catalyze_C8ABidU_to_C8A_BidT'
p372
sg40
I00
sa(dp373
g2
(I29
tp374
sg4
(I4
I27
tp375
sg6
g7
(g8
(S'bind_BAR_C8A_kr'
p376
tp377
Rp378
(dp379
g13
g14
(g15
g16
(dp380
g18
I01
stp381
Rp382
sbg8
(S's29'
p383
tp384
Rp385
(dp386
g13
g14
(g15
g16
(dp387
g56
Nsg57
Nsg18
I01
sg58
Nstp388
Rp389
sbtp390
Rp391
(dp392
bsg38
S'bind_BAR_C8A'
p393
sg40
I01
sa(dp394
g2
(I30
tp395
sg4
(I6
I27
tp396
sg6
g7
(g8
(S'bind_C8A_C3pro_to_C8AC3pro_kr'
p397
tp398
Rp399
(dp400
g13
g14
(g15
g16
(dp401
g18
I01
stp402
Rp403
sbg8
(S's30'
p404
tp405
Rp406
(dp407
g13
g14
(g15
g16
(dp408
g56
Nsg57
Nsg18
I01
sg58
Nstp409
Rp410
sbtp411
Rp412
(dp413
bsg38
S'bind_C8A_C3pro_to_C8AC3pro'
p414
sg40
I01
sa(dp415
g2
(I30
tp416
sg4
(I27
I32
tp417
sg6
g7
(g8
(S'catalyze_C8AC3pro_to_C8A_C3A_kc'
p418
tp419
Rp420
(dp421
g13
g14
(g15
g16
(dp422
g18
I01
stp423
Rp424
sbg406
tp425
Rp426
(dp427
bsg38
S'catalyze_C8AC3pro_to_C8A_C3A'
p428
sg40
I00
sa(dp429
g2
(I10
I32
tp430
sg4
(I33
tp431
sg6
g7
(g8
(S'bind_XIAP_C3A_to_XIAPC3A_kf'
p432
tp433
Rp434
(dp435
g13
g14
(g15
g16
(dp436
g18
I01
stp437
Rp438
sbg8
(S's10'
p439
tp440
Rp441
(dp442
g13
g14
(g15
g16
(dp443
g18
I01
stp444
Rp445
sbg8
(S's32'
p446
tp447
Rp448
(dp449
g13
g14
(g15
g16
(dp450
g18
I01
stp451
Rp452
sbtp453
Rp454
(dp455
bsg38
S'bind_XIAP_C3A_to_XIAPC3A'
p456
sg40
I00
sa(dp457
g2
(I9
I32
tp458
sg4
(I34
tp459
sg6
g7
(g8
(S'bind_C3A_PARPU_to_C3APARPU_kf'
p460
tp461
Rp462
(dp463
g13
g14
(g15
g16
(dp464
g18
I01
stp465
Rp466
sbg448
g8
(S's9'
p467
tp468
Rp469
(dp470
g13
g14
(g15
g16
(dp471
g18
I01
stp472
Rp473
sbtp474
Rp475
(dp476
bsg38
S'bind_C3A_PARPU_to_C3APARPU'
p477
sg40
I00
sa(dp478
g2
(I7
I32
tp479
sg4
(I35
tp480
sg6
g7
(g8
(S'bind_C3A_C6pro_to_C3AC6pro_kf'
p481
tp482
Rp483
(dp484
g13
g14
(g15
g16
(dp485
g18
I01
stp486
Rp487
sbg448
g8
(S's7'
p488
tp489
Rp490
(dp491
g13
g14
(g15
g16
(dp492
g18
I01
stp493
Rp494
sbtp495
Rp496
(dp497
bsg38
S'bind_C3A_C6pro_to_C3AC6pro'
p498
sg40
I00
sa(dp499
g2
(I31
tp500
sg4
(I36
tp501
sg6
g7
(g8
(S'equilibrate_BidT_to_BidM_kf'
p502
tp503
Rp504
(dp505
g13
g14
(g15
g16
(dp506
g18
I01
stp507
Rp508
sbg8
(S's31'
p509
tp510
Rp511
(dp512
g13
g14
(g15
g16
(dp513
g56
Nsg57
Nsg18
I01
sg58
Nstp514
Rp515
sbtp516
Rp517
(dp518
bsg38
S'equilibrate_BidT_to_BidM'
p519
sg40
I00
sa(dp520
g2
(I33
tp521
sg4
(I10
I32
tp522
sg6
g7
(g8
(S'bind_XIAP_C3A_to_XIAPC3A_kr'
p523
tp524
Rp525
(dp526
g13
g14
(g15
g16
(dp527
g18
I01
stp528
Rp529
sbg8
(S's33'
p530
tp531
Rp532
(dp533
g13
g14
(g15
g16
(dp534
g56
Nsg57
Nsg18
I01
sg58
Nstp535
Rp536
sbtp537
Rp538
(dp539
bsg38
S'bind_XIAP_C3A_to_XIAPC3A'
p540
sg40
I01
sa(dp541
g2
(I33
tp542
sg4
(I10
I37
tp543
sg6
g7
(g8
(S'catalyze_XIAPC3A_to_XIAP_C3ub_kc'
p544
tp545
Rp546
(dp547
g13
g14
(g15
g16
(dp548
g18
I01
stp549
Rp550
sbg532
tp551
Rp552
(dp553
bsg38
S'catalyze_XIAPC3A_to_XIAP_C3ub'
p554
sg40
I00
sa(dp555
g2
(I34
tp556
sg4
(I9
I32
tp557
sg6
g7
(g8
(S'bind_C3A_PARPU_to_C3APARPU_kr'
p558
tp559
Rp560
(dp561
g13
g14
(g15
g16
(dp562
g18
I01
stp563
Rp564
sbg8
(S's34'
p565
tp566
Rp567
(dp568
g13
g14
(g15
g16
(dp569
g56
Nsg57
Nsg18
I01
sg58
Nstp570
Rp571
sbtp572
Rp573
(dp574
bsg38
S'bind_C3A_PARPU_to_C3APARPU'
p575
sg40
I01
sa(dp576
g2
(I34
tp577
sg4
(I32
I38
tp578
sg6
g7
(g8
(S'catalyze_C3APARPU_to_C3A_PARPC_kc'
p579
tp580
Rp581
(dp582
g13
g14
(g15
g16
(dp583
g18
I01
stp584
Rp585
sbg567
tp586
Rp587
(dp588
bsg38
S'catalyze_C3APARPU_to_C3A_PARPC'
p589
sg40
I00
sa(dp590
g2
(I35
tp591
sg4
(I7
I32
tp592
sg6
g7
(g8
(S'bind_C3A_C6pro_to_C3AC6pro_kr'
p593
tp594
Rp595
(dp596
g13
g14
(g15
g16
(dp597
g18
I01
stp598
Rp599
sbg8
(S's35'
p600
tp601
Rp602
(dp603
g13
g14
(g15
g16
(dp604
g56
Nsg57
Nsg18
I01
sg58
Nstp605
Rp606
sbtp607
Rp608
(dp609
bsg38
S'bind_C3A_C6pro_to_C3AC6pro'
p610
sg40
I01
sa(dp611
g2
(I35
tp612
sg4
(I32
I39
tp613
sg6
g7
(g8
(S'catalyze_C3AC6pro_to_C3A_C6A_kc'
p614
tp615
Rp616
(dp617
g13
g14
(g15
g16
(dp618
g18
I01
stp619
Rp620
sbg602
tp621
Rp622
(dp623
bsg38
S'catalyze_C3AC6pro_to_C3A_C6A'
p624
sg40
I00
sa(dp625
g2
(I36
tp626
sg4
(I31
tp627
sg6
g7
(g8
(S'equilibrate_BidT_to_BidM_kr'
p628
tp629
Rp630
(dp631
g13
g14
(g15
g16
(dp632
g18
I01
stp633
Rp634
sbg8
(S's36'
p635
tp636
Rp637
(dp638
g13
g14
(g15
g16
(dp639
g56
Nsg57
Nsg18
I01
sg58
Nstp640
Rp641
sbtp642
Rp643
(dp644
bsg38
S'equilibrate_BidT_to_BidM'
p645
sg40
I01
sa(dp646
g2
(I22
I36
tp647
sg4
(I40
tp648
sg6
g7
(g8
(S'bind_BidM_BaxM_to_BidMBaxM_kf'
p649
tp650
Rp651
(dp652
g13
g14
(g15
g16
(dp653
g18
I01
stp654
Rp655
sbg133
g637
tp656
Rp657
(dp658
bsg38
S'bind_BidM_BaxM_to_BidMBaxM'
p659
sg40
I00
sa(dp660
g2
(I14
I36
tp661
sg4
(I41
tp662
sg6
g7
(g8
(S'bind_BidM_BakM_to_BidMBakM_kf'
p663
tp664
Rp665
(dp666
g13
g14
(g15
g16
(dp667
g18
I01
stp668
Rp669
sbg8
(S's14'
p670
tp671
Rp672
(dp673
g13
g14
(g15
g16
(dp674
g18
I01
stp675
Rp676
sbg637
tp677
Rp678
(dp679
bsg38
S'bind_BidM_BakM_to_BidMBakM'
p680
sg40
I00
sa(dp681
g2
(I15
I36
tp682
sg4
(I42
tp683
sg6
g7
(g8
(S'bind_BidM_Bcl2_kf'
p684
tp685
Rp686
(dp687
g13
g14
(g15
g16
(dp688
g18
I01
stp689
Rp690
sbg8
(S's15'
p691
tp692
Rp693
(dp694
g13
g14
(g15
g16
(dp695
g18
I01
stp696
Rp697
sbg637
tp698
Rp699
(dp700
bsg38
S'bind_BidM_Bcl2'
p701
sg40
I00
sa(dp702
g2
(I23
I36
tp703
sg4
(I43
tp704
sg6
g7
(g8
(S'bind_BidM_BclxLM_kf'
p705
tp706
Rp707
(dp708
g13
g14
(g15
g16
(dp709
g18
I01
stp710
Rp711
sbg154
g637
tp712
Rp713
(dp714
bsg38
S'bind_BidM_BclxLM'
p715
sg40
I00
sa(dp716
g2
(I17
I36
tp717
sg4
(I44
tp718
sg6
g7
(g8
(S'bind_BidM_Mcl1M_kf'
p719
tp720
Rp721
(dp722
g13
g14
(g15
g16
(dp723
g18
I01
stp724
Rp725
sbg8
(S's17'
p726
tp727
Rp728
(dp729
g13
g14
(g15
g16
(dp730
g18
I01
stp731
Rp732
sbg637
tp733
Rp734
(dp735
bsg38
S'bind_BidM_Mcl1M'
p736
sg40
I00
sa(dp737
g2
(I3
I39
tp738
sg4
(I45
tp739
sg6
g7
(g8
(S'bind_C6A_C8pro_to_C6AC8pro_kf'
p740
tp741
Rp742
(dp743
g13
g14
(g15
g16
(dp744
g18
I01
stp745
Rp746
sbg182
g8
(S's39'
p747
tp748
Rp749
(dp750
g13
g14
(g15
g16
(dp751
g18
I01
stp752
Rp753
sbtp754
Rp755
(dp756
bsg38
S'bind_C6A_C8pro_to_C6AC8pro'
p757
sg40
I00
sa(dp758
g2
(I40
tp759
sg4
(I22
I36
tp760
sg6
g7
(g8
(S'bind_BidM_BaxM_to_BidMBaxM_kr'
p761
tp762
Rp763
(dp764
g13
g14
(g15
g16
(dp765
g18
I01
stp766
Rp767
sbg8
(S's40'
p768
tp769
Rp770
(dp771
g13
g14
(g15
g16
(dp772
g56
Nsg57
Nsg18
I01
sg58
Nstp773
Rp774
sbtp775
Rp776
(dp777
bsg38
S'bind_BidM_BaxM_to_BidMBaxM'
p778
sg40
I01
sa(dp779
g2
(I40
tp780
sg4
(I36
I46
tp781
sg6
g7
(g8
(S'catalyze_BidMBaxM_to_BidM_BaxA_kc'
p782
tp783
Rp784
(dp785
g13
g14
(g15
g16
(dp786
g18
I01
stp787
Rp788
sbg770
tp789
Rp790
(dp791
bsg38
S'catalyze_BidMBaxM_to_BidM_BaxA'
p792
sg40
I00
sa(dp793
g2
(I41
tp794
sg4
(I14
I36
tp795
sg6
g7
(g8
(S'bind_BidM_BakM_to_BidMBakM_kr'
p796
tp797
Rp798
(dp799
g13
g14
(g15
g16
(dp800
g18
I01
stp801
Rp802
sbg8
(S's41'
p803
tp804
Rp805
(dp806
g13
g14
(g15
g16
(dp807
g56
Nsg57
Nsg18
I01
sg58
Nstp808
Rp809
sbtp810
Rp811
(dp812
bsg38
S'bind_BidM_BakM_to_BidMBakM'
p813
sg40
I01
sa(dp814
g2
(I41
tp815
sg4
(I36
I47
tp816
sg6
g7
(g8
(S'catalyze_BidMBakM_to_BidM_BakA_kc'
p817
tp818
Rp819
(dp820
g13
g14
(g15
g16
(dp821
g18
I01
stp822
Rp823
sbg805
tp824
Rp825
(dp826
bsg38
S'catalyze_BidMBakM_to_BidM_BakA'
p827
sg40
I00
sa(dp828
g2
(I42
tp829
sg4
(I15
I36
tp830
sg6
g7
(g8
(S'bind_BidM_Bcl2_kr'
p831
tp832
Rp833
(dp834
g13
g14
(g15
g16
(dp835
g18
I01
stp836
Rp837
sbg8
(S's42'
p838
tp839
Rp840
(dp841
g13
g14
(g15
g16
(dp842
g56
Nsg57
Nsg18
I01
sg58
Nstp843
Rp844
sbtp845
Rp846
(dp847
bsg38
S'bind_BidM_Bcl2'
p848
sg40
I01
sa(dp849
g2
(I43
tp850
sg4
(I23
I36
tp851
sg6
g7
(g8
(S'bind_BidM_BclxLM_kr'
p852
tp853
Rp854
(dp855
g13
g14
(g15
g16
(dp856
g18
I01
stp857
Rp858
sbg8
(S's43'
p859
tp860
Rp861
(dp862
g13
g14
(g15
g16
(dp863
g56
Nsg57
Nsg18
I01
sg58
Nstp864
Rp865
sbtp866
Rp867
(dp868
bsg38
S'bind_BidM_BclxLM'
p869
sg40
I01
sa(dp870
g2
(I44
tp871
sg4
(I17
I36
tp872
sg6
g7
(g8
(S'bind_BidM_Mcl1M_kr'
p873
tp874
Rp875
(dp876
g13
g14
(g15
g16
(dp877
g18
I01
stp878
Rp879
sbg8
(S's44'
p880
tp881
Rp882
(dp883
g13
g14
(g15
g16
(dp884
g56
Nsg57
Nsg18
I01
sg58
Nstp885
Rp886
sbtp887
Rp888
(dp889
bsg38
S'bind_BidM_Mcl1M'
p890
sg40
I01
sa(dp891
g2
(I45
tp892
sg4
(I3
I39
tp893
sg6
g7
(g8
(S'bind_C6A_C8pro_to_C6AC8pro_kr'
p894
tp895
Rp896
(dp897
g13
g14
(g15
g16
(dp898
g18
I01
stp899
Rp900
sbg8
(S's45'
p901
tp902
Rp903
(dp904
g13
g14
(g15
g16
(dp905
g56
Nsg57
Nsg18
I01
sg58
Nstp906
Rp907
sbtp908
Rp909
(dp910
bsg38
S'bind_C6A_C8pro_to_C6AC8pro'
p911
sg40
I01
sa(dp912
g2
(I45
tp913
sg4
(I27
I39
tp914
sg6
g7
(g8
(S'catalyze_C6AC8pro_to_C6A_C8A_kc'
p915
tp916
Rp917
(dp918
g13
g14
(g15
g16
(dp919
g18
I01
stp920
Rp921
sbg903
tp922
Rp923
(dp924
bsg38
S'catalyze_C6AC8pro_to_C6A_C8A'
p925
sg40
I00
sa(dp926
g2
(I22
I46
tp927
sg4
(I48
tp928
sg6
g7
(g8
(S'bind_BaxA_BaxM_to_BaxABaxM_kf'
p929
tp930
Rp931
(dp932
g13
g14
(g15
g16
(dp933
g18
I01
stp934
Rp935
sbg133
g8
(S's46'
p936
tp937
Rp938
(dp939
g13
g14
(g15
g16
(dp940
g18
I01
stp941
Rp942
sbtp943
Rp944
(dp945
bsg38
S'bind_BaxA_BaxM_to_BaxABaxM'
p946
sg40
I00
sa(dp947
g2
(I14
I47
tp948
sg4
(I49
tp949
sg6
g7
(g8
(S'bind_BakA_BakM_to_BakABakM_kf'
p950
tp951
Rp952
(dp953
g13
g14
(g15
g16
(dp954
g18
I01
stp955
Rp956
sbg672
g8
(S's47'
p957
tp958
Rp959
(dp960
g13
g14
(g15
g16
(dp961
g18
I01
stp962
Rp963
sbtp964
Rp965
(dp966
bsg38
S'bind_BakA_BakM_to_BakABakM'
p967
sg40
I00
sa(dp968
g2
(I15
I46
tp969
sg4
(I50
tp970
sg6
g7
(g8
(S'bind_BaxA_Bcl2_kf'
p971
tp972
Rp973
(dp974
g13
g14
(g15
g16
(dp975
g18
I01
stp976
Rp977
sbg693
g938
tp978
Rp979
(dp980
bsg38
S'bind_BaxA_Bcl2'
p981
sg40
I00
sa(dp982
g2
(I23
I46
tp983
sg4
(I51
tp984
sg6
g7
(g8
(S'bind_BaxA_BclxLM_kf'
p985
tp986
Rp987
(dp988
g13
g14
(g15
g16
(dp989
g18
I01
stp990
Rp991
sbg154
g938
tp992
Rp993
(dp994
bsg38
S'bind_BaxA_BclxLM'
p995
sg40
I00
sa(dp996
g2
(I23
I47
tp997
sg4
(I52
tp998
sg6
g7
(g8
(S'bind_BakA_BclxLM_kf'
p999
tp1000
Rp1001
(dp1002
g13
g14
(g15
g16
(dp1003
g18
I01
stp1004
Rp1005
sbg154
g959
tp1006
Rp1007
(dp1008
bsg38
S'bind_BakA_BclxLM'
p1009
sg40
I00
sa(dp1010
g2
(I17
I47
tp1011
sg4
(I53
tp1012
sg6
g7
(g8
(S'bind_BakA_Mcl1_kf'
p1013
tp1014
Rp1015
(dp1016
g13
g14
(g15
g16
(dp1017
g18
I01
stp1018
Rp1019
sbg728
g959
tp1020
Rp1021
(dp1022
bsg38
S'bind_BakA_Mcl1'
p1023
sg40
I00
sa(dp1024
g2
(I46
I46
tp1025
sg4
(I54
tp1026
sg6
g7
(g8
(S'assemble_pore_sequential_Bax_2_kf'
p1027
tp1028
Rp1029
(dp1030
g13
g14
(g15
g16
(dp1031
g18
I01
stp1032
Rp1033
sbcsympy.core.power
Pow
p1034
(g938
csympy.core.numbers
Integer
p1035
(I2
tp1036
Rp1037
(dp1038
btp1039
Rp1040
(dp1041
btp1042
Rp1043
(dp1044
bsg38
S'assemble_pore_sequential_Bax_2'
p1045
sg40
I00
sa(dp1046
g2
(I47
I47
tp1047
sg4
(I55
tp1048
sg6
g7
(g8
(S'assemble_pore_sequential_Bak_2_kf'
p1049
tp1050
Rp1051
(dp1052
g13
g14
(g15
g16
(dp1053
g18
I01
stp1054
Rp1055
sbg1034
(g959
g1037
tp1056
Rp1057
(dp1058
btp1059
Rp1060
(dp1061
bsg38
S'assemble_pore_sequential_Bak_2'
p1062
sg40
I00
sa(dp1063
g2
(I48
tp1064
sg4
(I22
I46
tp1065
sg6
g7
(g8
(S'bind_BaxA_BaxM_to_BaxABaxM_kr'
p1066
tp1067
Rp1068
(dp1069
g13
g14
(g15
g16
(dp1070
g18
I01
stp1071
Rp1072
sbg8
(S's48'
p1073
tp1074
Rp1075
(dp1076
g13
g14
(g15
g16
(dp1077
g56
Nsg57
Nsg18
I01
sg58
Nstp1078
Rp1079
sbtp1080
Rp1081
(dp1082
bsg38
S'bind_BaxA_BaxM_to_BaxABaxM'
p1083
sg40
I01
sa(dp1084
g2
(I48
tp1085
sg4
(I46
I46
tp1086
sg6
g7
(g8
(S'catalyze_BaxABaxM_to_BaxA_BaxA_kc'
p1087
tp1088
Rp1089
(dp1090
g13
g14
(g15
g16
(dp1091
g18
I01
stp1092
Rp1093
sbg1075
tp1094
Rp1095
(dp1096
bsg38
S'catalyze_BaxABaxM_to_BaxA_BaxA'
p1097
sg40
I00
sa(dp1098
g2
(I49
tp1099
sg4
(I14
I47
tp1100
sg6
g7
(g8
(S'bind_BakA_BakM_to_BakABakM_kr'
p1101
tp1102
Rp1103
(dp1104
g13
g14
(g15
g16
(dp1105
g18
I01
stp1106
Rp1107
sbg8
(S's49'
p1108
tp1109
Rp1110
(dp1111
g13
g14
(g15
g16
(dp1112
g56
Nsg57
Nsg18
I01
sg58
Nstp1113
Rp1114
sbtp1115
Rp1116
(dp1117
bsg38
S'bind_BakA_BakM_to_BakABakM'
p1118
sg40
I01
sa(dp1119
g2
(I49
tp1120
sg4
(I47
I47
tp1121
sg6
g7
(g8
(S'catalyze_BakABakM_to_BakA_BakA_kc'
p1122
tp1123
Rp1124
(dp1125
g13
g14
(g15
g16
(dp1126
g18
I01
stp1127
Rp1128
sbg1110
tp1129
Rp1130
(dp1131
bsg38
S'catalyze_BakABakM_to_BakA_BakA'
p1132
sg40
I00
sa(dp1133
g2
(I50
tp1134
sg4
(I15
I46
tp1135
sg6
g7
(g8
(S'bind_BaxA_Bcl2_kr'
p1136
tp1137
Rp1138
(dp1139
g13
g14
(g15
g16
(dp1140
g18
I01
stp1141
Rp1142
sbg8
(S's50'
p1143
tp1144
Rp1145
(dp1146
g13
g14
(g15
g16
(dp1147
g56
Nsg57
Nsg18
I01
sg58
Nstp1148
Rp1149
sbtp1150
Rp1151
(dp1152
bsg38
S'bind_BaxA_Bcl2'
p1153
sg40
I01
sa(dp1154
g2
(I51
tp1155
sg4
(I23
I46
tp1156
sg6
g7
(g8
(S'bind_BaxA_BclxLM_kr'
p1157
tp1158
Rp1159
(dp1160
g13
g14
(g15
g16
(dp1161
g18
I01
stp1162
Rp1163
sbg8
(S's51'
p1164
tp1165
Rp1166
(dp1167
g13
g14
(g15
g16
(dp1168
g56
Nsg57
Nsg18
I01
sg58
Nstp1169
Rp1170
sbtp1171
Rp1172
(dp1173
bsg38
S'bind_BaxA_BclxLM'
p1174
sg40
I01
sa(dp1175
g2
(I52
tp1176
sg4
(I23
I47
tp1177
sg6
g7
(g8
(S'bind_BakA_BclxLM_kr'
p1178
tp1179
Rp1180
(dp1181
g13
g14
(g15
g16
(dp1182
g18
I01
stp1183
Rp1184
sbg8
(S's52'
p1185
tp1186
Rp1187
(dp1188
g13
g14
(g15
g16
(dp1189
g56
Nsg57
Nsg18
I01
sg58
Nstp1190
Rp1191
sbtp1192
Rp1193
(dp1194
bsg38
S'bind_BakA_BclxLM'
p1195
sg40
I01
sa(dp1196
g2
(I53
tp1197
sg4
(I17
I47
tp1198
sg6
g7
(g8
(S'bind_BakA_Mcl1_kr'
p1199
tp1200
Rp1201
(dp1202
g13
g14
(g15
g16
(dp1203
g18
I01
stp1204
Rp1205
sbg8
(S's53'
p1206
tp1207
Rp1208
(dp1209
g13
g14
(g15
g16
(dp1210
g56
Nsg57
Nsg18
I01
sg58
Nstp1211
Rp1212
sbtp1213
Rp1214
(dp1215
bsg38
S'bind_BakA_Mcl1'
p1216
sg40
I01
sa(dp1217
g2
(I54
tp1218
sg4
(I46
I46
tp1219
sg6
g7
(g8
(S'assemble_pore_sequential_Bax_2_kr'
p1220
tp1221
Rp1222
(dp1223
g13
g14
(g15
g16
(dp1224
g18
I01
stp1225
Rp1226
sbg8
(S's54'
p1227
tp1228
Rp1229
(dp1230
g13
g14
(g15
g16
(dp1231
g56
Nsg57
Nsg18
I01
sg58
Nstp1232
Rp1233
sbtp1234
Rp1235
(dp1236
bsg38
S'assemble_pore_sequential_Bax_2'
p1237
sg40
I01
sa(dp1238
g2
(I46
I54
tp1239
sg4
(I56
tp1240
sg6
g7
(g8
(S'assemble_pore_sequential_Bax_3_kf'
p1241
tp1242
Rp1243
(dp1244
g13
g14
(g15
g16
(dp1245
g18
I01
stp1246
Rp1247
sbg938
g1229
tp1248
Rp1249
(dp1250
bsg38
S'assemble_pore_sequential_Bax_3'
p1251
sg40
I00
sa(dp1252
g2
(I55
tp1253
sg4
(I47
I47
tp1254
sg6
g7
(g8
(S'assemble_pore_sequential_Bak_2_kr'
p1255
tp1256
Rp1257
(dp1258
g13
g14
(g15
g16
(dp1259
g18
I01
stp1260
Rp1261
sbg8
(S's55'
p1262
tp1263
Rp1264
(dp1265
g13
g14
(g15
g16
(dp1266
g56
Nsg57
Nsg18
I01
sg58
Nstp1267
Rp1268
sbtp1269
Rp1270
(dp1271
bsg38
S'assemble_pore_sequential_Bak_2'
p1272
sg40
I01
sa(dp1273
g2
(I47
I55
tp1274
sg4
(I57
tp1275
sg6
g7
(g8
(S'assemble_pore_sequential_Bak_3_kf'
p1276
tp1277
Rp1278
(dp1279
g13
g14
(g15
g16
(dp1280
g18
I01
stp1281
Rp1282
sbg959
g1264
tp1283
Rp1284
(dp1285
bsg38
S'assemble_pore_sequential_Bak_3'
p1286
sg40
I00
sa(dp1287
g2
(I56
tp1288
sg4
(I46
I54
tp1289
sg6
g7
(g8
(S'assemble_pore_sequential_Bax_3_kr'
p1290
tp1291
Rp1292
(dp1293
g13
g14
(g15
g16
(dp1294
g18
I01
stp1295
Rp1296
sbg8
(S's56'
p1297
tp1298
Rp1299
(dp1300
g13
g14
(g15
g16
(dp1301
g56
Nsg57
Nsg18
I01
sg58
Nstp1302
Rp1303
sbtp1304
Rp1305
(dp1306
bsg38
S'assemble_pore_sequential_Bax_3'
p1307
sg40
I01
sa(dp1308
g2
(I46
I56
tp1309
sg4
(I58
tp1310
sg6
g7
(g8
(S'assemble_pore_sequential_Bax_4_kf'
p1311
tp1312
Rp1313
(dp1314
g13
g14
(g15
g16
(dp1315
g18
I01
stp1316
Rp1317
sbg938
g1299
tp1318
Rp1319
(dp1320
bsg38
S'assemble_pore_sequential_Bax_4'
p1321
sg40
I00
sa(dp1322
g2
(I57
tp1323
sg4
(I47
I55
tp1324
sg6
g7
(g8
(S'assemble_pore_sequential_Bak_3_kr'
p1325
tp1326
Rp1327
(dp1328
g13
g14
(g15
g16
(dp1329
g18
I01
stp1330
Rp1331
sbg8
(S's57'
p1332
tp1333
Rp1334
(dp1335
g13
g14
(g15
g16
(dp1336
g56
Nsg57
Nsg18
I01
sg58
Nstp1337
Rp1338
sbtp1339
Rp1340
(dp1341
bsg38
S'assemble_pore_sequential_Bak_3'
p1342
sg40
I01
sa(dp1343
g2
(I47
I57
tp1344
sg4
(I59
tp1345
sg6
g7
(g8
(S'assemble_pore_sequential_Bak_4_kf'
p1346
tp1347
Rp1348
(dp1349
g13
g14
(g15
g16
(dp1350
g18
I01
stp1351
Rp1352
sbg959
g1334
tp1353
Rp1354
(dp1355
bsg38
S'assemble_pore_sequential_Bak_4'
p1356
sg40
I00
sa(dp1357
g2
(I58
tp1358
sg4
(I46
I56
tp1359
sg6
g7
(g8
(S'assemble_pore_sequential_Bax_4_kr'
p1360
tp1361
Rp1362
(dp1363
g13
g14
(g15
g16
(dp1364
g18
I01
stp1365
Rp1366
sbg8
(S's58'
p1367
tp1368
Rp1369
(dp1370
g13
g14
(g15
g16
(dp1371
g56
Nsg57
Nsg18
I01
sg58
Nstp1372
Rp1373
sbtp1374
Rp1375
(dp1376
bsg38
S'assemble_pore_sequential_Bax_4'
p1377
sg40
I01
sa(dp1378
g2
(I59
tp1379
sg4
(I47
I57
tp1380
sg6
g7
(g8
(S'assemble_pore_sequential_Bak_4_kr'
p1381
tp1382
Rp1383
(dp1384
g13
g14
(g15
g16
(dp1385
g18
I01
stp1386
Rp1387
sbg8
(S's59'
p1388
tp1389
Rp1390
(dp1391
g13
g14
(g15
g16
(dp1392
g56
Nsg57
Nsg18
I01
sg58
Nstp1393
Rp1394
sbtp1395
Rp1396
(dp1397
bsg38
S'assemble_pore_sequential_Bak_4'
p1398
sg40
I01
sa(dp1399
g2
(I19
I58
tp1400
sg4
(I60
tp1401
sg6
g7
(g8
(S'pore_transport_complex_BaxA_4_CytoCM_kf'
p1402
tp1403
Rp1404
(dp1405
g13
g14
(g15
g16
(dp1406
g18
I01
stp1407
Rp1408
sbg8
(S's19'
p1409
tp1410
Rp1411
(dp1412
g13
g14
(g15
g16
(dp1413
g18
I01
stp1414
Rp1415
sbg1369
tp1416
Rp1417
(dp1418
bsg38
S'pore_transport_complex_BaxA_4_CytoCM'
p1419
sg40
I00
sa(dp1420
g2
(I20
I58
tp1421
sg4
(I61
tp1422
sg6
g7
(g8
(S'pore_transport_complex_BaxA_4_SmacM_kf'
p1423
tp1424
Rp1425
(dp1426
g13
g14
(g15
g16
(dp1427
g18
I01
stp1428
Rp1429
sbg8
(S's20'
p1430
tp1431
Rp1432
(dp1433
g13
g14
(g15
g16
(dp1434
g18
I01
stp1435
Rp1436
sbg1369
tp1437
Rp1438
(dp1439
bsg38
S'pore_transport_complex_BaxA_4_SmacM'
p1440
sg40
I00
sa(dp1441
g2
(I19
I59
tp1442
sg4
(I62
tp1443
sg6
g7
(g8
(S'pore_transport_complex_BakA_4_CytoCM_kf'
p1444
tp1445
Rp1446
(dp1447
g13
g14
(g15
g16
(dp1448
g18
I01
stp1449
Rp1450
sbg1411
g1390
tp1451
Rp1452
(dp1453
bsg38
S'pore_transport_complex_BakA_4_CytoCM'
p1454
sg40
I00
sa(dp1455
g2
(I20
I59
tp1456
sg4
(I63
tp1457
sg6
g7
(g8
(S'pore_transport_complex_BakA_4_SmacM_kf'
p1458
tp1459
Rp1460
(dp1461
g13
g14
(g15
g16
(dp1462
g18
I01
stp1463
Rp1464
sbg1432
g1390
tp1465
Rp1466
(dp1467
bsg38
S'pore_transport_complex_BakA_4_SmacM'
p1468
sg40
I00
sa(dp1469
g2
(I60
tp1470
sg4
(I19
I58
tp1471
sg6
g7
(g8
(S'pore_transport_complex_BaxA_4_CytoCM_kr'
p1472
tp1473
Rp1474
(dp1475
g13
g14
(g15
g16
(dp1476
g18
I01
stp1477
Rp1478
sbg8
(S's60'
p1479
tp1480
Rp1481
(dp1482
g13
g14
(g15
g16
(dp1483
g56
Nsg57
Nsg18
I01
sg58
Nstp1484
Rp1485
sbtp1486
Rp1487
(dp1488
bsg38
S'pore_transport_complex_BaxA_4_CytoCM'
p1489
sg40
I01
sa(dp1490
g2
(I60
tp1491
sg4
(I58
I64
tp1492
sg6
g7
(g8
(S'pore_transport_dissociate_BaxA_4_CytoCC_kc'
p1493
tp1494
Rp1495
(dp1496
g13
g14
(g15
g16
(dp1497
g18
I01
stp1498
Rp1499
sbg1481
tp1500
Rp1501
(dp1502
bsg38
S'pore_transport_dissociate_BaxA_4_CytoCC'
p1503
sg40
I00
sa(dp1504
g2
(I61
tp1505
sg4
(I20
I58
tp1506
sg6
g7
(g8
(S'pore_transport_complex_BaxA_4_SmacM_kr'
p1507
tp1508
Rp1509
(dp1510
g13
g14
(g15
g16
(dp1511
g18
I01
stp1512
Rp1513
sbg8
(S's61'
p1514
tp1515
Rp1516
(dp1517
g13
g14
(g15
g16
(dp1518
g56
Nsg57
Nsg18
I01
sg58
Nstp1519
Rp1520
sbtp1521
Rp1522
(dp1523
bsg38
S'pore_transport_complex_BaxA_4_SmacM'
p1524
sg40
I01
sa(dp1525
g2
(I61
tp1526
sg4
(I58
I65
tp1527
sg6
g7
(g8
(S'pore_transport_dissociate_BaxA_4_SmacC_kc'
p1528
tp1529
Rp1530
(dp1531
g13
g14
(g15
g16
(dp1532
g18
I01
stp1533
Rp1534
sbg1516
tp1535
Rp1536
(dp1537
bsg38
S'pore_transport_dissociate_BaxA_4_SmacC'
p1538
sg40
I00
sa(dp1539
g2
(I62
tp1540
sg4
(I19
I59
tp1541
sg6
g7
(g8
(S'pore_transport_complex_BakA_4_CytoCM_kr'
p1542
tp1543
Rp1544
(dp1545
g13
g14
(g15
g16
(dp1546
g18
I01
stp1547
Rp1548
sbg8
(S's62'
p1549
tp1550
Rp1551
(dp1552
g13
g14
(g15
g16
(dp1553
g56
Nsg57
Nsg18
I01
sg58
Nstp1554
Rp1555
sbtp1556
Rp1557
(dp1558
bsg38
S'pore_transport_complex_BakA_4_CytoCM'
p1559
sg40
I01
sa(dp1560
g2
(I62
tp1561
sg4
(I59
I64
tp1562
sg6
g7
(g8
(S'pore_transport_dissociate_BakA_4_CytoCC_kc'
p1563
tp1564
Rp1565
(dp1566
g13
g14
(g15
g16
(dp1567
g18
I01
stp1568
Rp1569
sbg1551
tp1570
Rp1571
(dp1572
bsg38
S'pore_transport_dissociate_BakA_4_CytoCC'
p1573
sg40
I00
sa(dp1574
g2
(I63
tp1575
sg4
(I20
I59
tp1576
sg6
g7
(g8
(S'pore_transport_complex_BakA_4_SmacM_kr'
p1577
tp1578
Rp1579
(dp1580
g13
g14
(g15
g16
(dp1581
g18
I01
stp1582
Rp1583
sbg8
(S's63'
p1584
tp1585
Rp1586
(dp1587
g13
g14
(g15
g16
(dp1588
g56
Nsg57
Nsg18
I01
sg58
Nstp1589
Rp1590
sbtp1591
Rp1592
(dp1593
bsg38
S'pore_transport_complex_BakA_4_SmacM'
p1594
sg40
I01
sa(dp1595
g2
(I63
tp1596
sg4
(I59
I65
tp1597
sg6
g7
(g8
(S'pore_transport_dissociate_BakA_4_SmacC_kc'
p1598
tp1599
Rp1600
(dp1601
g13
g14
(g15
g16
(dp1602
g18
I01
stp1603
Rp1604
sbg1586
tp1605
Rp1606
(dp1607
bsg38
S'pore_transport_dissociate_BakA_4_SmacC'
p1608
sg40
I00
sa(dp1609
g2
(I65
tp1610
sg4
(I66
tp1611
sg6
g7
(g8
(S'equilibrate_SmacC_to_SmacA_kf'
p1612
tp1613
Rp1614
(dp1615
g13
g14
(g15
g16
(dp1616
g18
I01
stp1617
Rp1618
sbg8
(S's65'
p1619
tp1620
Rp1621
(dp1622
g13
g14
(g15
g16
(dp1623
g56
Nsg57
Nsg18
I01
sg58
Nstp1624
Rp1625
sbtp1626
Rp1627
(dp1628
bsg38
S'equilibrate_SmacC_to_SmacA'
p1629
sg40
I00
sa(dp1630
g2
(I64
tp1631
sg4
(I67
tp1632
sg6
g7
(g8
(S'equilibrate_CytoCC_to_CytoCA_kf'
p1633
tp1634
Rp1635
(dp1636
g13
g14
(g15
g16
(dp1637
g18
I01
stp1638
Rp1639
sbg8
(S's64'
p1640
tp1641
Rp1642
(dp1643
g13
g14
(g15
g16
(dp1644
g56
Nsg57
Nsg18
I01
sg58
Nstp1645
Rp1646
sbtp1647
Rp1648
(dp1649
bsg38
S'equilibrate_CytoCC_to_CytoCA'
p1650
sg40
I00
sa(dp1651
g2
(I66
tp1652
sg4
(I65
tp1653
sg6
g7
(g8
(S'equilibrate_SmacC_to_SmacA_kr'
p1654
tp1655
Rp1656
(dp1657
g13
g14
(g15
g16
(dp1658
g18
I01
stp1659
Rp1660
sbg8
(S's66'
p1661
tp1662
Rp1663
(dp1664
g13
g14
(g15
g16
(dp1665
g56
Nsg57
Nsg18
I01
sg58
Nstp1666
Rp1667
sbtp1668
Rp1669
(dp1670
bsg38
S'equilibrate_SmacC_to_SmacA'
p1671
sg40
I01
sa(dp1672
g2
(I67
tp1673
sg4
(I64
tp1674
sg6
g7
(g8
(S'equilibrate_CytoCC_to_CytoCA_kr'
p1675
tp1676
Rp1677
(dp1678
g13
g14
(g15
g16
(dp1679
g18
I01
stp1680
Rp1681
sbg8
(S's67'
p1682
tp1683
Rp1684
(dp1685
g13
g14
(g15
g16
(dp1686
g56
Nsg57
Nsg18
I01
sg58
Nstp1687
Rp1688
sbtp1689
Rp1690
(dp1691
bsg38
S'equilibrate_CytoCC_to_CytoCA'
p1692
sg40
I01
sa(dp1693
g2
(I5
I67
tp1694
sg4
(I68
tp1695
sg6
g7
(g8
(S'bind_CytoCA_ApafI_to_CytoCAApafI_kf'
p1696
tp1697
Rp1698
(dp1699
g13
g14
(g15
g16
(dp1700
g18
I01
stp1701
Rp1702
sbg8
(S's5'
p1703
tp1704
Rp1705
(dp1706
g13
g14
(g15
g16
(dp1707
g18
I01
stp1708
Rp1709
sbg1684
tp1710
Rp1711
(dp1712
bsg38
S'bind_CytoCA_ApafI_to_CytoCAApafI'
p1713
sg40
I00
sa(dp1714
g2
(I10
I66
tp1715
sg4
(I69
tp1716
sg6
g7
(g8
(S'bind_SmacA_XIAP_kf'
p1717
tp1718
Rp1719
(dp1720
g13
g14
(g15
g16
(dp1721
g18
I01
stp1722
Rp1723
sbg441
g1663
tp1724
Rp1725
(dp1726
bsg38
S'bind_SmacA_XIAP'
p1727
sg40
I00
sa(dp1728
g2
(I68
tp1729
sg4
(I5
I67
tp1730
sg6
g7
(g8
(S'bind_CytoCA_ApafI_to_CytoCAApafI_kr'
p1731
tp1732
Rp1733
(dp1734
g13
g14
(g15
g16
(dp1735
g18
I01
stp1736
Rp1737
sbg8
(S's68'
p1738
tp1739
Rp1740
(dp1741
g13
g14
(g15
g16
(dp1742
g56
Nsg57
Nsg18
I01
sg58
Nstp1743
Rp1744
sbtp1745
Rp1746
(dp1747
bsg38
S'bind_CytoCA_ApafI_to_CytoCAApafI'
p1748
sg40
I01
sa(dp1749
g2
(I68
tp1750
sg4
(I67
I70
tp1751
sg6
g7
(g8
(S'catalyze_CytoCAApafI_to_CytoCA_ApafA_kc'
p1752
tp1753
Rp1754
(dp1755
g13
g14
(g15
g16
(dp1756
g18
I01
stp1757
Rp1758
sbg1740
tp1759
Rp1760
(dp1761
bsg38
S'catalyze_CytoCAApafI_to_CytoCA_ApafA'
p1762
sg40
I00
sa(dp1763
g2
(I69
tp1764
sg4
(I10
I66
tp1765
sg6
g7
(g8
(S'bind_SmacA_XIAP_kr'
p1766
tp1767
Rp1768
(dp1769
g13
g14
(g15
g16
(dp1770
g18
I01
stp1771
Rp1772
sbg8
(S's69'
p1773
tp1774
Rp1775
(dp1776
g13
g14
(g15
g16
(dp1777
g56
Nsg57
Nsg18
I01
sg58
Nstp1778
Rp1779
sbtp1780
Rp1781
(dp1782
bsg38
S'bind_SmacA_XIAP'
p1783
sg40
I01
sa(dp1784
g2
(I8
I70
tp1785
sg4
(I71
tp1786
sg6
g7
(g8
(S'convert_ApafA_C9_to_Apop_kf'
p1787
tp1788
Rp1789
(dp1790
g13
g14
(g15
g16
(dp1791
g18
I01
stp1792
Rp1793
sbg8
(S's70'
p1794
tp1795
Rp1796
(dp1797
g13
g14
(g15
g16
(dp1798
g18
I01
stp1799
Rp1800
sbg8
(S's8'
p1801
tp1802
Rp1803
(dp1804
g13
g14
(g15
g16
(dp1805
g18
I01
stp1806
Rp1807
sbtp1808
Rp1809
(dp1810
bsg38
S'convert_ApafA_C9_to_Apop'
p1811
sg40
I00
sa(dp1812
g2
(I71
tp1813
sg4
(I8
I70
tp1814
sg6
g7
(g8
(S'convert_ApafA_C9_to_Apop_kr'
p1815
tp1816
Rp1817
(dp1818
g13
g14
(g15
g16
(dp1819
g18
I01
stp1820
Rp1821
sbg8
(S's71'
p1822
tp1823
Rp1824
(dp1825
g13
g14
(g15
g16
(dp1826
g56
Nsg57
Nsg18
I01
sg58
Nstp1827
Rp1828
sbtp1829
Rp1830
(dp1831
bsg38
S'convert_ApafA_C9_to_Apop'
p1832
sg40
I01
sa(dp1833
g2
(I6
I71
tp1834
sg4
(I72
tp1835
sg6
g7
(g8
(S'bind_Apop_C3pro_to_ApopC3pro_kf'
p1836
tp1837
Rp1838
(dp1839
g13
g14
(g15
g16
(dp1840
g18
I01
stp1841
Rp1842
sbg329
g1824
tp1843
Rp1844
(dp1845
bsg38
S'bind_Apop_C3pro_to_ApopC3pro'
p1846
sg40
I00
sa(dp1847
g2
(I10
I71
tp1848
sg4
(I73
tp1849
sg6
g7
(g8
(S'bind_Apop_XIAP_kf'
p1850
tp1851
Rp1852
(dp1853
g13
g14
(g15
g16
(dp1854
g18
I01
stp1855
Rp1856
sbg441
g1824
tp1857
Rp1858
(dp1859
bsg38
S'bind_Apop_XIAP'
p1860
sg40
I00
sa(dp1861
g2
(I72
tp1862
sg4
(I6
I71
tp1863
sg6
g7
(g8
(S'bind_Apop_C3pro_to_ApopC3pro_kr'
p1864
tp1865
Rp1866
(dp1867
g13
g14
(g15
g16
(dp1868
g18
I01
stp1869
Rp1870
sbg8
(S's72'
p1871
tp1872
Rp1873
(dp1874
g13
g14
(g15
g16
(dp1875
g56
Nsg57
Nsg18
I01
sg58
Nstp1876
Rp1877
sbtp1878
Rp1879
(dp1880
bsg38
S'bind_Apop_C3pro_to_ApopC3pro'
p1881
sg40
I01
sa(dp1882
g2
(I72
tp1883
sg4
(I32
I71
tp1884
sg6
g7
(g8
(S'catalyze_ApopC3pro_to_Apop_C3A_kc'
p1885
tp1886
Rp1887
(dp1888
g13
g14
(g15
g16
(dp1889
g18
I01
stp1890
Rp1891
sbg1873
tp1892
Rp1893
(dp1894
bsg38
S'catalyze_ApopC3pro_to_Apop_C3A'
p1895
sg40
I00
sa(dp1896
g2
(I73
tp1897
sg4
(I10
I71
tp1898
sg6
g7
(g8
(S'bind_Apop_XIAP_kr'
p1899
tp1900
Rp1901
(dp1902
g13
g14
(g15
g16
(dp1903
g18
I01
stp1904
Rp1905
sbg8
(S's73'
p1906
tp1907
Rp1908
(dp1909
g13
g14
(g15
g16
(dp1910
g56
Nsg57
Nsg18
I01
sg58
Nstp1911
Rp1912
sbtp1913
Rp1914
(dp1915
bsg38
S'bind_Apop_XIAP'
p1916
sg40
I01
sa.